(dp0
S'blubber'
p1
I1
sS'foul'
p2
I4
sS'four'
p3
I9
sS'over-r'
p4
I8
sS'lesbian-kil'
p5
I1
sS'1939-'
p6
I1
sS'lori'
p7
I1
sS'woodi'
p8
I1
sS'lord'
p9
I8
sS'desensit'
p10
I1
sS'wizardri'
p11
I1
sS'digit'
p12
I3
sS'deli'
p13
I1
sS'bile'
p14
I1
sS'lumin'
p15
I1
sS'hitchcock'
p16
I4
sS'sonja'
p17
I1
sS'delv'
p18
I1
sS'politician'
p19
I1
sS'elvi'
p20
I3
sS'disturb'
p21
I13
sS'prize'
p22
I2
sS'wooden'
p23
I4
sS'haawwww'
p24
I1
sS'oooo'
p25
I1
sS'vomit-pan'
p26
I1
sS'scheider'
p27
I1
sS'miller'
p28
I1
sS'pubic'
p29
I1
sS'histor'
p30
I9
sS'second'
p31
I47
sS'superscop'
p32
I1
sS'gore-inv'
p33
I1
sS'dialogu'
p34
I31
sS'ruthless'
p35
I1
sS'thunder'
p36
I1
sS'insta-freez'
p37
I1
sS'roddi'
p38
I1
sS'uuuuuuugggghhhhhh'
p39
I1
sS'tuturro'
p40
I1
sS'kid-'
p41
I1
sS'specialist'
p42
I1
sS'intellectu'
p43
I8
sS'crouch'
p44
I2
sS'dahl'
p45
I3
sS'old-farti'
p46
I1
sS'anti-southern'
p47
I1
sS'cula'
p48
I1
sS'here'
p49
I65
sS'herd'
p50
I1
sS'chine'
p51
I1
sS'spoon'
p52
I2
sS'cult'
p53
I3
sS'herv'
p54
I1
sS'dork'
p55
I3
sS'argh'
p56
I1
sS'deterior'
p57
I2
sS'militari'
p58
I4
sS'k'
p59
I3
sS'songwrit'
p60
I1
sS'climber'
p61
I1
sS'controversi'
p62
I1
sS'golden'
p63
I2
sS'brought'
p64
I15
sS'stern'
p65
I1
sS'univ'
p66
I2
sS'mcconahay'
p67
I2
sS'scarier'
p68
I3
sS'spoke'
p69
I3
sS'music'
p70
I49
sS'unexploit'
p71
I1
sS'strike'
p72
I1
sS'until'
p73
I25
sS'nebul'
p74
I1
sS'owen'
p75
I2
sS'relat'
p76
I9
sS'notic'
p77
I10
sS'hurt'
p78
I13
sS'meteorologist'
p79
I1
sS'glass'
p80
I3
sS'holm'
p81
I3
sS'holi'
p82
I4
sS'hurl'
p83
I2
sS'90'
p84
I12
sS'hole'
p85
I11
sS'biblic'
p86
I2
sS'95'
p87
I1
sS'thrown-togeth'
p88
I1
sS'believable-'
p89
I1
sS'accid'
p90
I2
sS'othewis'
p91
I1
sS'blade'
p92
I2
sS'conceptu'
p93
I1
sS'locker'
p94
I1
sS'burnett'
p95
I1
sS'rework'
p96
I1
sS'matilda'
p97
I1
sS'syndic'
p98
I1
sS'infus'
p99
I1
sS'charlton'
p100
I1
sS'gofigur'
p101
I1
sS'want'
p102
I161
sS'artilleri'
p103
I1
sS'dyke'
p104
I1
sS'hoe'
p105
I3
sS'travel'
p106
I4
sS'copious'
p107
I1
sS'classifi'
p108
I5
sS'how'
p109
I176
sS'hot'
p110
I14
sS'comediann'
p111
I1
sS'machina'
p112
I1
sS'hop'
p113
I1
sS'perspect'
p114
I4
sS'jezzzuz'
p115
I1
sS'yun'
p116
I1
sS'wrong'
p117
I33
sS'face-in-the-wat'
p118
I1
sS'beauti'
p119
I21
sS'turd'
p120
I5
sS'vicin'
p121
I1
sS'glow-in-the-dark'
p122
I1
sS'revolt'
p123
I2
sS'revolv'
p124
I3
sS'childhood'
p125
I2
sS'say-horr'
p126
I1
sS'wing'
p127
I3
sS'backdrop'
p128
I1
sS'heavy-hand'
p129
I1
sS'appar'
p130
I24
sS'scalia'
p131
I1
sS'wherein'
p132
I1
sS'fit'
p133
I9
sS'beer-drink'
p134
I1
sS'fix'
p135
I3
sS'connel'
p136
I1
sS'diffrent'
p137
I1
sS'inan'
p138
I4
sS'conner'
p139
I1
sS'hidden'
p140
I1
sS'easier'
p141
I1
sS'fim'
p142
I2
sS'slate'
p143
I1
sS'glorifi'
p144
I6
sS'surgic'
p145
I1
sS'interrupt'
p146
I2
sS'sixteen'
p147
I1
sS'silver'
p148
I4
sS'arrog'
p149
I4
sS'debut'
p150
I1
sS'foregin'
p151
I1
sS'spotless'
p152
I1
sS'showcas'
p153
I3
sS'pleez'
p154
I1
sS'resum'
p155
I1
sS'spider'
p156
I1
sS'thelma'
p157
I1
sS'whis'
p158
I1
sS'whip'
p159
I2
sS'homicid'
p160
I1
sS'protray'
p161
I1
sS'mason'
p162
I1
sS're'
p163
I47
sS'genghi'
p164
I2
sS'adapt'
p165
I5
sS'rc'
p166
I2
sS'yourselv'
p167
I2
sS'wanna-be'
p168
I1
sS'noriega'
p169
I1
sS'dracula'
p170
I5
sS'nightmar'
p171
I10
sS'15th-centuri'
p172
I1
sS'jennif'
p173
I15
sS'9-11'
p174
I1
sS'lliam'
p175
I1
sS'christma'
p176
I4
sS'thwe'
p177
I1
sS'ate'
p178
I2
sS'vorhe'
p179
I3
sS'unabl'
p180
I1
sS'confus'
p181
I23
sS'strangelov'
p182
I2
sS'rosco'
p183
I1
sS'clariti'
p184
I1
sS'wast'
p185
I206
sS'seinfeld'
p186
I2
sS'wasn'
p187
I78
sS'subtleti'
p188
I1
sS'sutherland'
p189
I3
sS'diaster'
p190
I1
sS'third-rat'
p191
I2
sS'understat'
p192
I2
sS'adject'
p193
I1
sS'master'
p194
I4
sS'critter'
p195
I1
sS'bitter'
p196
I1
sS'listen'
p197
I14
sS'danish'
p198
I2
sS'bacon'
p199
I7
sS'asner'
p200
I1
sS'wisdom'
p201
I1
sS'motionless'
p202
I1
sS'crawl'
p203
I3
sS'technic'
p204
I2
sS'trek'
p205
I25
sS'tree'
p206
I4
sS'project'
p207
I8
sS'fece'
p208
I1
sS'bearabl'
p209
I1
sS'trep'
p210
I1
sS'artless'
p211
I1
sS'screwup'
p212
I1
sS'acclaim'
p213
I6
sS'esta'
p214
I1
sS'corni'
p215
I14
sS'runner'
p216
I1
sS'boston'
p217
I3
sS'spectrum'
p218
I1
sS'craven'
p219
I2
sS'straightlac'
p220
I1
sS'corny'
p221
I1
sS'dozen'
p222
I5
sS'calber'
p223
I1
sS'that'
p224
I1305
sS'unrehears'
p225
I1
sS'chaarcter'
p226
I1
sS'carpentetr'
p227
I1
sS'strobe'
p228
I1
sS'pander'
p229
I1
sS'heart--and'
p230
I1
sS'amovi'
p231
I1
sS'object'
p232
I4
sS'swiss'
p233
I1
sS'mouth'
p234
I7
sS'thriller'
p235
I6
sS'singer'
p236
I2
sS'unpleas'
p237
I4
sS'professor'
p238
I1
sS'camp'
p239
I8
sS'hospit'
p240
I3
sS'scream'
p241
I32
sS'came'
p242
I39
sS'marvel'
p243
I2
sS'ostentati'
p244
I1
sS'bomb'
p245
I21
sS'cheapli'
p246
I1
sS'transluc'
p247
I1
sS'sexism'
p248
I2
sS'lethal'
p249
I1
sS'hi-tech'
p250
I1
sS'restaur'
p251
I4
sS'bust'
p252
I2
sS'theme'
p253
I11
sS'busi'
p254
I12
sS'bliss'
p255
I1
sS'incredibley'
p256
I1
sS'rich'
p257
I6
sS'mend'
p258
I1
sS'rice'
p259
I1
sS'mena'
p260
I1
sS'plate'
p261
I1
sS'godzilla'
p262
I2
sS'pocket'
p263
I1
sS'giggl'
p264
I3
sS'transpir'
p265
I1
sS'rushmor'
p266
I1
sS'numbingly-idiot'
p267
I1
sS'patch'
p268
I2
sS'sauc'
p269
I1
sS'v8s'
p270
I1
sS'blew'
p271
I7
sS'disaster'
p272
I1
sS'fair'
p273
I13
sS'remem'
p274
I1
sS'result'
p275
I13
sS'respons'
p276
I4
sS'fail'
p277
I26
sS'hero'
p278
I17
sS'best'
p279
I79
sS'nanni'
p280
I1
sS'geriatr'
p281
I1
sS'monument'
p282
I3
sS'lotr'
p283
I1
sS'ringu'
p284
I2
sS'cubbi'
p285
I1
sS'irv'
p286
I1
sS'skimpi'
p287
I1
sS'figur'
p288
I22
sS'score'
p289
I8
sS'humankind'
p290
I1
sS'reccomend'
p291
I1
sS'oscar-win'
p292
I1
sS'men'
p293
I21
sS'extend'
p294
I3
sS'juliet'
p295
I2
sS'extens'
p296
I2
sS'unsatisfact'
p297
I1
sS'wtf'
p298
I7
sS'wth'
p299
I2
sS'toler'
p300
I4
sS'advertis'
p301
I6
sS'roller'
p302
I3
sS'planner'
p303
I2
sS'pitt'
p304
I3
sS'piti'
p305
I7
sS'filmgoer'
p306
I1
sS'unalter'
p307
I1
sS'logic'
p308
I3
sS'countri'
p309
I8
sS'compromis'
p310
I2
sS'rehash'
p311
I4
sS'vain'
p312
I1
sS'cuz'
p313
I2
sS'michell'
p314
I1
sS'assum'
p315
I10
sS'fema'
p316
I1
sS'duplic'
p317
I1
sS'filmak'
p318
I1
sS'thought-provok'
p319
I2
sS'muck'
p320
I2
sS'much'
p321
I164
sS'wuld'
p322
I1
sS'superhuman'
p323
I1
sS'jackass'
p324
I2
sS'ann'
p325
I1
sS'hesit'
p326
I1
sS'life'
p327
I93
sS'nah-uh'
p328
I1
sS'retrospect'
p329
I1
sS'spit'
p330
I1
sS'eastern'
p331
I1
sS'charleton'
p332
I1
sS'fast-forward'
p333
I1
sS'kssing'
p334
I1
sS'child'
p335
I25
sS'spin'
p336
I1
sS'davi'
p337
I1
sS'chill'
p338
I2
sS'remmington'
p339
I1
sS'commerci'
p340
I9
sS'cyber-jason'
p341
I1
sS'b-horror'
p342
I1
sS'gritti'
p343
I1
sS'marriag'
p344
I1
sS'hopkin'
p345
I6
sS'frenet'
p346
I1
sS'gen-i'
p347
I1
sS'disprov'
p348
I1
sS'player'
p349
I8
sS'elicit'
p350
I1
sS'gen-x'
p351
I1
sS'madonna'
p352
I3
sS'pastur'
p353
I1
sS'hong'
p354
I1
sS'hokey'
p355
I5
sS'puerter'
p356
I1
sS'transpar'
p357
I1
sS'doofus'
p358
I2
sS'thingi'
p359
I1
sS'split'
p360
I1
sS'costum'
p361
I9
sS'preachi'
p362
I4
sS'tuna'
p363
I2
sS'tune'
p364
I2
sS'bewar'
p365
I1
sS'disguist'
p366
I1
sS'bergan'
p367
I1
sS'gigolo'
p368
I2
sS'givin'
p369
I1
sS'forsaken'
p370
I1
sS'plight'
p371
I2
sS'sleepi'
p372
I5
sS'brandish'
p373
I1
sS'previous'
p374
I7
sS'alum'
p375
I1
sS'speilberg'
p376
I2
sS'easi'
p377
I8
sS'loveabl'
p378
I2
sS'deterr'
p379
I1
sS'had'
p380
I223
sS'hay'
p381
I1
sS'endur'
p382
I1
sS'har'
p383
I3
sS'has'
p384
I187
sS'hat'
p385
I2
sS'sanit'
p386
I1
sS'credit'
p387
I15
sS'sacreligi'
p388
I1
sS'twinki'
p389
I1
sS'birth'
p390
I2
sS'shadow'
p391
I3
sS'measur'
p392
I2
sS'specif'
p393
I2
sS'presious'
p394
I1
sS'goldfing'
p395
I1
sS'remind'
p396
I5
sS'mogwai'
p397
I1
sS'gwendolyn'
p398
I1
sS'gangster-typ'
p399
I1
sS'tombston'
p400
I1
sS'battlefield'
p401
I8
sS'right'
p402
I73
sS'old'
p403
I93
sS'creek'
p404
I3
sS'crowd'
p405
I4
sS'walk-on'
p406
I1
sS'crown'
p407
I1
sS'worse-'
p408
I1
sS'creep'
p409
I2
sS'witti'
p410
I4
sS'cultish'
p411
I1
sS'for'
p412
I694
sS'bottom'
p413
I9
sS'fox'
p414
I1
sS'gooch'
p415
I1
sS'foe'
p416
I1
sS'uma'
p417
I1
sS'unit'
p418
I8
sS'umm'
p419
I1
sS'condit'
p420
I3
sS'sensibl'
p421
I2
sS'moviedom'
p422
I2
sS'dental'
p423
I1
sS'colleg'
p424
I8
sS'continuo'
p425
I1
sS'defton'
p426
I1
sS'lefti'
p427
I1
sS'valium'
p428
I1
sS'yorki'
p429
I2
sS'o'
p430
I14
sS'tinkerbel'
p431
I1
sS'emilio'
p432
I1
sS'bath'
p433
I1
sS'sod'
p434
I1
sS'dyson'
p435
I1
sS'soo'
p436
I5
sS'son'
p437
I13
sS'creativ'
p438
I18
sS'wrap'
p439
I4
sS'halli'
p440
I1
sS'support'
p441
I13
sS'tame'
p442
I2
sS'avail'
p443
I1
sS'joseph'
p444
I1
sS'goddamn'
p445
I1
sS'jane'
p446
I7
sS'tele'
p447
I1
sS'pfieffer'
p448
I1
sS'crapdotcom'
p449
I1
sS'headach'
p450
I9
sS'offer'
p451
I7
sS'recommend'
p452
I32
sS'floatat'
p453
I1
sS'duel'
p454
I1
sS'azz'
p455
I1
sS'actuallli'
p456
I1
sS'dung-beetl'
p457
I1
sS'adopt'
p458
I1
sS'158'
p459
I1
sS'proven'
p460
I2
sS'exist'
p461
I12
sS'dealer'
p462
I3
sS'smelt'
p463
I1
sS'floor'
p464
I6
sS'actor'
p465
I126
sS'flood'
p466
I2
sS'role'
p467
I40
sS'fheit'
p468
I1
sS'sunset'
p469
I1
sS'presum'
p470
I1
sS'smell'
p471
I4
sS'roll'
p472
I9
sS'premarit'
p473
I1
sS'legitim'
p474
I2
sS'intenc'
p475
I1
sS'intend'
p476
I5
sS'devot'
p477
I1
sS'intens'
p478
I1
sS'intent'
p479
I7
sS'miranda'
p480
I1
sS'aragorn'
p481
I1
sS'99'
p482
I1
sS'shootout'
p483
I1
sS'dunst'
p484
I3
sS'montag'
p485
I1
sS'time'
p486
I327
sS'push'
p487
I8
sS'ndice'
p488
I1
sS'chain'
p489
I4
sS'whoever'
p490
I3
sS'urinari'
p491
I1
sS'skate'
p492
I1
sS'chair'
p493
I5
sS'muppet'
p494
I3
sS'decid'
p495
I23
sS'uneven'
p496
I1
sS'religion'
p497
I2
sS'action-pack'
p498
I1
sS'keifer'
p499
I1
sS'vey'
p500
I1
sS'decis'
p501
I2
sS'oversight'
p502
I1
sS'over-the-top'
p503
I2
sS'jerk'
p504
I4
sS'sado-slash'
p505
I1
sS'exact'
p506
I17
sS'shenanigan'
p507
I1
sS'moola'
p508
I1
sS'tear'
p509
I4
sS'teas'
p510
I2
sS'leftov'
p511
I1
sS'belushi'
p512
I3
sS'team'
p513
I10
sS'wastin'
p514
I1
sS'prevent'
p515
I4
sS'be'
p516
I601
sS'counsler'
p517
I1
sS'compens'
p518
I2
sS'sign'
p519
I11
sS'bondag'
p520
I1
sS'meanac'
p521
I1
sS'anaconda'
p522
I2
sS'camerawork'
p523
I3
sS'elton'
p524
I1
sS'freaki'
p525
I4
sS'current'
p526
I4
sS'woddi'
p527
I1
sS'fifti'
p528
I1
sS'honour'
p529
I1
sS'juri'
p530
I1
sS'exterem'
p531
I1
sS'along'
p532
I20
sS'disservic'
p533
I1
sS'brilliant'
p534
I11
sS'cusack'
p535
I2
sS'brillianc'
p536
I3
sS'love'
p537
I113
sS'outerspac'
p538
I1
sS'canin'
p539
I1
sS'prefer'
p540
I7
sS'bad-no'
p541
I1
sS'fake'
p542
I20
sS'instal'
p543
I1
sS'bloodi'
p544
I3
sS'in-rout'
p545
I1
sS'wicker'
p546
I1
sS'angri'
p547
I7
sS'peopl'
p548
I202
sS'claus'
p549
I1
sS'visual'
p550
I8
sS'jeeper'
p551
I3
sS'honey'
p552
I3
sS'film-'
p553
I1
sS'pretend'
p554
I6
sS'pretenc'
p555
I1
sS'whatev'
p556
I23
sS'nascar'
p557
I6
sS'recycl'
p558
I1
sS'stole'
p559
I1
sS'predelict'
p560
I1
sS'chaucer'
p561
I1
sS'coleman'
p562
I2
sS'spot'
p563
I6
sS'mcdowel'
p564
I1
sS'laundri'
p565
I1
sS'date'
p566
I15
sS'remak'
p567
I25
sS'suck'
p568
I234
sS'data'
p569
I1
sS'brainless'
p570
I2
sS'harmon'
p571
I1
sS'stress'
p572
I1
sS'conscious'
p573
I1
sS'ss'
p574
I1
sS'sr'
p575
I1
sS'masterpeic'
p576
I1
sS'su'
p577
I1
sS'mangl'
p578
I1
sS'sh'
p579
I21
sS'so'
p580
I458
sS'f---ing'
p581
I1
sS'se'
p582
I1
sS'drunken'
p583
I1
sS'konk'
p584
I1
sS'horriff'
p585
I1
sS'horrifi'
p586
I3
sS'footstep'
p587
I1
sS'kong'
p588
I1
sS'tti'
p589
I1
sS'big-buck'
p590
I1
sS'elain'
p591
I2
sS'glorifiact'
p592
I1
sS'berat'
p593
I1
sS'tora'
p594
I3
sS'thumb'
p595
I7
sS'groaner'
p596
I1
sS'infint'
p597
I1
sS'jim'
p598
I24
sS'hellboy'
p599
I1
sS'dangerfield'
p600
I1
sS'palpabl'
p601
I1
sS'937'
p602
I1
sS'this-is-crap'
p603
I1
sS'civilian'
p604
I2
sS'smarter'
p605
I3
sS'insomnia'
p606
I2
sS'nation'
p607
I11
sS'hemmorhag'
p608
I1
sS'truckload'
p609
I1
sS'didn'
p610
I164
sS'updat'
p611
I2
sS'imtatiaon'
p612
I1
sS'booorrrrinnnnnggggg'
p613
I1
sS'receipt'
p614
I1
sS'co-work'
p615
I1
sS'prostitut'
p616
I4
sS'internet'
p617
I4
sS'formula'
p618
I5
sS'cupcak'
p619
I1
sS'domest'
p620
I2
sS'million'
p621
I12
sS'envelop'
p622
I1
sS'seventi'
p623
I2
sS'substanc'
p624
I7
sS'disrespect'
p625
I7
sS'crazier'
p626
I1
sS'grandma'
p627
I1
sS'chevi'
p628
I2
sS'dunno'
p629
I1
sS'punk'
p630
I3
sS'punh'
p631
I1
sS'aboard'
p632
I2
sS'neglect'
p633
I1
sS'oper'
p634
I4
sS'shrewlik'
p635
I1
sS'carlyl'
p636
I2
sS'spoken'
p637
I4
sS'onc'
p638
I56
sS'potter'
p639
I5
sS'one'
p640
I672
sS'distat'
p641
I1
sS'whpo'
p642
I1
sS'spanish'
p643
I1
sS'vote'
p644
I6
sS'open'
p645
I12
sS'plotless'
p646
I2
sS'looong'
p647
I1
sS'wrath'
p648
I1
sS'bite'
p649
I2
sS'citi'
p650
I6
sS'2'
p651
I87
sS'slasher'
p652
I7
sS'kinkier'
p653
I1
sS'snatch'
p654
I1
sS'craven-lik'
p655
I1
sS'devito'
p656
I3
sS'boyfriend'
p657
I8
sS'iceberg'
p658
I3
sS'simple-mind'
p659
I1
sS'rival'
p660
I3
sS'non-stop'
p661
I2
sS'so-so'
p662
I1
sS'folli'
p663
I1
sS'oooohhhh'
p664
I1
sS'russia'
p665
I1
sS'sai'
p666
I1
sS'influenti'
p667
I1
sS'sam'
p668
I4
sS'sugarco'
p669
I1
sS'cheri'
p670
I1
sS'argument'
p671
I3
sS'sad'
p672
I30
sS'alleg'
p673
I1
sS'say'
p674
I161
sS'allen'
p675
I5
sS'turner'
p676
I3
sS'sap'
p677
I2
sS'saw'
p678
I86
sS'sat'
p679
I8
sS'babysit'
p680
I1
sS'hilfig'
p681
I1
sS'note'
p682
I9
sS'goodman'
p683
I1
sS'denomin'
p684
I3
sS'take'
p685
I104
sS'peeper'
p686
I1
sS'destroy'
p687
I11
sS'scorses'
p688
I1
sS'noth'
p689
I108
sS'knew'
p690
I16
sS'abus'
p691
I5
sS'knee'
p692
I1
sS'unhistor'
p693
I1
sS'wealthiest'
p694
I1
sS'everlast'
p695
I1
sS'guiltili'
p696
I1
sS'dreamwork'
p697
I2
sS'sale'
p698
I1
sS'wind'
p699
I7
sS'axe'
p700
I1
sS'salt'
p701
I2
sS'usuali'
p702
I1
sS'open-mind'
p703
I1
sS'opportunist'
p704
I1
sS'merit'
p705
I7
sS'bright'
p706
I6
sS'unfinish'
p707
I1
sS'slow'
p708
I26
sS'slop'
p709
I1
sS'zahn'
p710
I1
sS'romanian'
p711
I1
sS'activ'
p712
I1
sS'foward'
p713
I1
sS'hockey'
p714
I2
sS'robe'
p715
I1
sS'wayn'
p716
I2
sS'clubfoot'
p717
I1
sS'drumlin'
p718
I1
sS'import'
p719
I10
sS'hooper'
p720
I1
sS'requir'
p721
I4
sS'prime'
p722
I2
sS'artist'
p723
I6
sS'borrow'
p724
I2
sS'priest'
p725
I1
sS'roger'
p726
I6
sS'cheerlead'
p727
I6
sS'vision'
p728
I1
sS'goup'
p729
I1
sS'espa'
p730
I1
sS'overdramat'
p731
I1
sS'gangster'
p732
I2
sS'job-'
p733
I1
sS'diver'
p734
I1
sS'fahrenhyp'
p735
I2
sS'teeni'
p736
I5
sS'televis'
p737
I6
sS'overdon'
p738
I7
sS'ubiquit'
p739
I1
sS'teacup'
p740
I1
sS'mope'
p741
I1
sS'poopi'
p742
I1
sS'caan'
p743
I1
sS'spars'
p744
I1
sS'screen'
p745
I48
sS'spare'
p746
I3
sS'shortag'
p747
I1
sS'spark'
p748
I2
sS'abomin'
p749
I4
sS'oust'
p750
I1
sS'madcap'
p751
I1
sS'auburn-mississippi'
p752
I1
sS's'
p753
I731
sS'yeeee'
p754
I1
sS'mani'
p755
I84
sS'mann'
p756
I1
sS'twit'
p757
I1
sS'exagger'
p758
I1
sS'anti'
p759
I1
sS'3000'
p760
I2
sS'boar'
p761
I1
sS'hercul'
p762
I1
sS'boat'
p763
I5
sS'personat'
p764
I1
sS'companionship'
p765
I1
sS'subcultur'
p766
I1
sS'stretch'
p767
I1
sS'west'
p768
I2
sS'vacuiti'
p769
I1
sS'venic'
p770
I1
sS'breath'
p771
I2
sS'roald'
p772
I3
sS'reflex'
p773
I1
sS'fig'
p774
I1
sS'gist'
p775
I1
sS'thousand'
p776
I7
sS'resolut'
p777
I1
sS'fellini'
p778
I1
sS'abject'
p779
I1
sS'former'
p780
I4
sS'queasi'
p781
I1
sS'hayek'
p782
I1
sS'scriptur'
p783
I2
sS'aperitif'
p784
I1
sS'ive'
p785
I3
sS'taser'
p786
I1
sS'convinc'
p787
I16
sS'bros'
p788
I1
sS'blah'
p789
I12
sS'fame'
p790
I2
sS'damon'
p791
I4
sS'breakdown'
p792
I2
sS'pornograph'
p793
I4
sS'pacino'
p794
I1
sS'genit'
p795
I1
sS'grumpi'
p796
I1
sS'vacant'
p797
I2
sS'nothin'
p798
I1
sS'back-drop'
p799
I1
sS'personali'
p800
I1
sS'summer'
p801
I8
sS'distast'
p802
I1
sS'disconcert'
p803
I2
sS'rest'
p804
I23
sS'laughabl'
p805
I12
sS'hayley'
p806
I1
sS'indulg'
p807
I1
sS'littl'
p808
I90
sS'exercis'
p809
I4
sS'uncal'
p810
I1
sS'zion'
p811
I1
sS'around'
p812
I63
sS'rugrat'
p813
I2
sS'braveri'
p814
I1
sS'pos'
p815
I2
sS'dark'
p816
I35
sS'traffic'
p817
I2
sS'darn'
p818
I4
sS'world'
p819
I50
sS'dare'
p820
I2
sS'rate-it'
p821
I2
sS'60'
p822
I2
sS'stranger'
p823
I2
sS'61'
p824
I1
sS'clad'
p825
I1
sS'claw'
p826
I3
sS'manag'
p827
I23
sS'tvs'
p828
I1
sS'pushi'
p829
I1
sS'racial'
p830
I1
sS'whould'
p831
I2
sS'tote'
p832
I1
sS'noon'
p833
I1
sS'exil'
p834
I1
sS'evolv'
p835
I1
sS'exit'
p836
I1
sS'cuonfus'
p837
I1
sS'gruesom'
p838
I2
sS'911'
p839
I2
sS'martha--they'
p840
I1
sS'refer'
p841
I8
sS'power'
p842
I25
sS'booooo'
p843
I2
sS'leadership'
p844
I1
sS'stone'
p845
I7
sS'ace'
p846
I2
sS'frightn'
p847
I1
sS'luci'
p848
I4
sS'movie-go'
p849
I2
sS'neighbor'
p850
I2
sS'act'
p851
I245
sS'industri'
p852
I7
sS'bond'
p853
I17
sS'surviv'
p854
I6
sS'wade'
p855
I1
sS'leblanc'
p856
I1
sS'bergen'
p857
I3
sS'charli'
p858
I3
sS'missi'
p859
I1
sS'her'
p860
I173
sS'hes'
p861
I1
sS'hey'
p862
I14
sS'mediev'
p863
I2
sS'mindless'
p864
I19
sS'franchis'
p865
I10
sS'heh'
p866
I1
sS'conclud'
p867
I2
sS'bundl'
p868
I1
sS'amplifi'
p869
I2
sS'dribbl'
p870
I1
sS'mick'
p871
I1
sS'walken'
p872
I1
sS'with'
p873
I613
sS'conclus'
p874
I6
sS'treacl'
p875
I2
sS'pull'
p876
I8
sS'tripl'
p877
I1
sS'dirti'
p878
I8
sS'tripe'
p879
I14
sS'brain-dead'
p880
I3
sS'flirt'
p881
I1
sS'500'
p882
I2
sS'waterpistol'
p883
I1
sS'pulp'
p884
I7
sS'gone'
p885
I17
sS'ohh'
p886
I1
sS'ad'
p887
I9
sS'creat'
p888
I20
sS'ah'
p889
I4
sS'am'
p890
I64
sS'al'
p891
I3
sS'ao'
p892
I1
sS'an'
p893
I291
sS'as'
p894
I563
sS'at'
p895
I406
sS'aw'
p896
I106
sS'ay'
p897
I1
sS'collid'
p898
I1
sS'puppi'
p899
I1
sS'abolish'
p900
I1
sS'tight'
p901
I3
sS'friggin'
p902
I6
sS'geocentr'
p903
I1
sS'alseep'
p904
I1
sS'calisthen'
p905
I1
sS'shaun'
p906
I2
sS'genuin'
p907
I3
sS'congress'
p908
I2
sS'a-'
p909
I1
sS'slant'
p910
I3
sS'lacklust'
p911
I1
sS'passerbi'
p912
I1
sS'midget'
p913
I1
sS'gayest'
p914
I1
sS'workmanlik'
p915
I1
sS'rostrum'
p916
I1
sS'sacchrin'
p917
I1
sS'keanu'
p918
I7
sS'mask'
p919
I8
sS'exlploit'
p920
I1
sS'groov'
p921
I2
sS'mimic'
p922
I1
sS'mass'
p923
I6
sS'adam'
p924
I32
sS'ubergeek'
p925
I1
sS'retch'
p926
I1
sS'sci'
p927
I2
sS'consider'
p928
I3
sS'schizophren'
p929
I1
sS'unansw'
p930
I4
sS'stankonian'
p931
I1
sS'tv'
p932
I36
sS'mindless--anchorman'
p933
I1
sS'nsna'
p934
I1
sS'dramat'
p935
I12
sS'to'
p936
I2199
sS'tail'
p937
I3
sS'th'
p938
I2
sS'fitch'
p939
I1
sS'smile'
p940
I2
sS'norm'
p941
I2
sS'diari'
p942
I1
sS'furiouser"'
p943
I1
sS'bellybutton'
p944
I1
sS'unhatch'
p945
I1
sS'telethon'
p946
I1
sS'candid'
p947
I2
sS'candic'
p948
I3
sS'offal'
p949
I1
sS'strang'
p950
I7
sS'strand'
p951
I1
sS'peski'
p952
I1
sS'althought'
p953
I1
sS't2'
p954
I4
sS't3'
p955
I3
sS't1'
p956
I1
sS'dinosaur'
p957
I2
sS'sane'
p958
I1
sS'small'
p959
I12
sS'chinees'
p960
I1
sS'sank'
p961
I1
sS'enterpris'
p962
I2
sS'american-styl'
p963
I1
sS'sync'
p964
I1
sS'hour-'
p965
I1
sS'past'
p966
I17
sS'pass'
p967
I12
sS'richard'
p968
I12
sS'clock'
p969
I3
sS'delet'
p970
I1
sS'method'
p971
I1
sS'contrast'
p972
I2
sS'hasn'
p973
I6
sS'full'
p974
I13
sS'2bux'
p975
I1
sS'dodg'
p976
I1
sS'fule'
p977
I1
sS'inher'
p978
I1
sS'corniest'
p979
I1
sS'legend'
p980
I14
sS'brutal'
p981
I8
sS'prior'
p982
I2
sS'mean-heart'
p983
I1
sS'social'
p984
I5
sS'action'
p985
I84
sS'via'
p986
I1
sS'depart'
p987
I1
sS'vin'
p988
I7
sS'athelet'
p989
I1
sS'gratuit'
p990
I9
sS'gosh'
p991
I1
sS'select'
p992
I4
sS'occassion'
p993
I1
sS'knit'
p994
I1
sS'teeny-tini'
p995
I1
sS'mucus'
p996
I1
sS'sitter'
p997
I1
sS'morn'
p998
I3
sS'polecat'
p999
I1
sS'hirsch'
p1000
I1
sS'firth'
p1001
I1
sS'more'
p1002
I197
sS'teen'
p1003
I19
sS'barbarino'
p1004
I2
sS'door'
p1005
I3
sS'hundr'
p1006
I9
sS'videoclip'
p1007
I1
sS'moviehalloween'
p1008
I1
sS'chuckl'
p1009
I3
sS'chucki'
p1010
I4
sS'hotti'
p1011
I1
sS'compani'
p1012
I10
sS'doom'
p1013
I3
sS'cack'
p1014
I2
sS'underr'
p1015
I3
sS'phillip'
p1016
I1
sS'pg-rat'
p1017
I1
sS'sent'
p1018
I2
sS'morgan'
p1019
I2
sS'learn'
p1020
I13
sS'male'
p1021
I12
sS'challeng'
p1022
I3
sS'accept'
p1023
I11
sS'masculin'
p1024
I1
sS'gallon'
p1025
I1
sS'dress'
p1026
I9
sS'eeevil'
p1027
I1
sS'huge'
p1028
I22
sS'crapola'
p1029
I1
sS'hugh'
p1030
I1
sS'scifi'
p1031
I2
sS'child-lik'
p1032
I1
sS'simpl'
p1033
I9
sS'keyster'
p1034
I1
sS'plant'
p1035
I1
sS'brett'
p1036
I1
sS'soundtrack'
p1037
I10
sS'aplenti'
p1038
I1
sS'plane'
p1039
I11
sS'circumst'
p1040
I4
sS'convuls'
p1041
I1
sS'rosebud'
p1042
I1
sS'imageri'
p1043
I1
sS'fourth-rat'
p1044
I1
sS'litt'
p1045
I1
sS'astair'
p1046
I1
sS'llama'
p1047
I1
sS'pant'
p1048
I5
sS'poplular'
p1049
I1
sS'fraser'
p1050
I1
sS'trade'
p1051
I6
sS'paper'
p1052
I11
sS'scott'
p1053
I3
sS'brim'
p1054
I2
sS'brie'
p1055
I1
sS'gentlemen'
p1056
I1
sS'nifti'
p1057
I2
sS'scooby-doo'
p1058
I1
sS'gerald'
p1059
I1
sS'alli'
p1060
I1
sS'zippi'
p1061
I1
sS'poor-me-cinderella'
p1062
I1
sS'bummer'
p1063
I1
sS'beatle-wannab'
p1064
I1
sS'tri'
p1065
I131
sS'it-'
p1066
I3
sS'sucker'
p1067
I4
sS'rosalind'
p1068
I1
sS'olivia'
p1069
I1
sS'recit'
p1070
I2
sS'plumber'
p1071
I1
sS'neccessari'
p1072
I1
sS'all-'
p1073
I2
sS'nauseous'
p1074
I2
sS'unlik'
p1075
I10
sS'authent'
p1076
I4
sS'achiev'
p1077
I2
sS'horor'
p1078
I1
sS'found'
p1079
I57
sS'dimwit'
p1080
I1
sS'execr'
p1081
I1
sS'denni'
p1082
I1
sS'embarass'
p1083
I8
sS'choppi'
p1084
I1
sS'england'
p1085
I1
sS'somnelesc'
p1086
I1
sS'monoton'
p1087
I1
sS'terrifi'
p1088
I2
sS'realli'
p1089
I243
sS'clockwork'
p1090
I4
sS'99cent'
p1091
I1
sS'fastforward'
p1092
I1
sS'reduct'
p1093
I1
sS'massiv'
p1094
I3
sS'lipstick'
p1095
I1
sS'research'
p1096
I2
sS'bubbl'
p1097
I3
sS'mouseket'
p1098
I1
sS'qualifi'
p1099
I1
sS'belief'
p1100
I8
sS'barrymor'
p1101
I4
sS'believ'
p1102
I112
sS'airwav'
p1103
I1
sS'driven'
p1104
I1
sS'albatross'
p1105
I1
sS'struggl'
p1106
I1
sS'sicken'
p1107
I6
sS'misogyni'
p1108
I1
sS'w'
p1109
I7
sS'testament'
p1110
I2
sS'clump'
p1111
I1
sS'major'
p1112
I26
sS'incomprehs'
p1113
I1
sS'purport'
p1114
I1
sS'number'
p1115
I13
sS'horribl'
p1116
I153
sS'plantetari'
p1117
I1
sS'guess'
p1118
I29
sS'guest'
p1119
I1
sS'jet'
p1120
I9
sS'gothika'
p1121
I1
sS'arlington'
p1122
I1
sS'zealot'
p1123
I1
sS'illeg'
p1124
I3
sS'codswallop'
p1125
I1
sS'relationship'
p1126
I7
sS'schinder'
p1127
I1
sS'chomp'
p1128
I1
sS'consult'
p1129
I1
sS'rampant'
p1130
I3
sS'grace'
p1131
I10
sS'traps'
p1132
I1
sS'aeon'
p1133
I1
sS'crook'
p1134
I2
sS'vocal'
p1135
I1
sS'walberg'
p1136
I2
sS'leakag'
p1137
I1
sS'hyde'
p1138
I1
sS'hewitt'
p1139
I4
sS'comput'
p1140
I11
sS'pedestrian'
p1141
I1
sS'blond'
p1142
I9
sS'shortchang'
p1143
I1
sS'requisit'
p1144
I1
sS'mawkish'
p1145
I1
sS'sell'
p1146
I11
sS'equival'
p1147
I1
sS'prbabli'
p1148
I1
sS'pro-castro'
p1149
I1
sS'self'
p1150
I6
sS'sela'
p1151
I2
sS'also'
p1152
I75
sS'exposit'
p1153
I1
sS'pervad'
p1154
I1
sS'tload'
p1155
I1
sS'play'
p1156
I76
sS'nasal'
p1157
I1
sS'cinematograpi'
p1158
I1
sS'yawn'
p1159
I2
sS'virus'
p1160
I3
sS'plan'
p1161
I7
sS'wive'
p1162
I3
sS'orlando'
p1163
I1
sS'cover'
p1164
I6
sS'barrel'
p1165
I3
sS'reincarn'
p1166
I1
sS'ugh'
p1167
I8
sS'golf'
p1168
I2
sS'bringin'
p1169
I1
sS'gold'
p1170
I4
sS'ugl'
p1171
I1
sS'dicaprio'
p1172
I4
sS'vader'
p1173
I4
sS'session'
p1174
I1
sS'naomi'
p1175
I1
sS'reput'
p1176
I1
sS'fianc'
p1177
I2
sS'impact'
p1178
I1
sS'writer'
p1179
I25
sS'deliri'
p1180
I1
sS'jar-jar'
p1181
I1
sS'palistinian'
p1182
I1
sS'fastbal'
p1183
I1
sS'trippi'
p1184
I1
sS'condom'
p1185
I1
sS'factor'
p1186
I10
sS'scissorhand'
p1187
I1
sS'compass'
p1188
I2
sS'baffl'
p1189
I2
sS'damnit'
p1190
I2
sS'ambiti'
p1191
I1
sS'dustin'
p1192
I2
sS'wiccan'
p1193
I1
sS'j-should'
p1194
I1
sS'non-scari'
p1195
I1
sS'enemi'
p1196
I1
sS'weaver'
p1197
I2
sS'nowher'
p1198
I16
sS'rivet'
p1199
I1
sS'set'
p1200
I39
sS'creator'
p1201
I3
sS'overwhelm'
p1202
I1
sS'jade'
p1203
I1
sS'sex'
p1204
I38
sS'see'
p1205
I338
sS'sea'
p1206
I2
sS'eman'
p1207
I1
sS'shower'
p1208
I5
sS'spiritu'
p1209
I1
sS'baldwin'
p1210
I1
sS'propoganda'
p1211
I1
sS'nope'
p1212
I3
sS'pirat'
p1213
I2
sS'death'
p1214
I33
sS'arond'
p1215
I1
sS'sceneri'
p1216
I2
sS'cryptic'
p1217
I1
sS'last'
p1218
I44
sS'thou'
p1219
I1
sS'thow'
p1220
I1
sS'natali'
p1221
I3
sS'malden'
p1222
I1
sS'lash'
p1223
I2
sS'hyperhypo'
p1224
I1
sS'whole'
p1225
I80
sS'becam'
p1226
I5
sS'load'
p1227
I9
sS'episod'
p1228
I7
sS'drunk'
p1229
I7
sS'schedul'
p1230
I2
sS'loan'
p1231
I1
sS'unrealist'
p1232
I17
sS'hollow'
p1233
I5
sS'badddddd'
p1234
I1
sS'trolog'
p1235
I1
sS'provok'
p1236
I2
sS'scottish'
p1237
I1
sS'communiti'
p1238
I2
sS'belt'
p1239
I1
sS'worthless'
p1240
I12
sS'devil'
p1241
I11
sS'filth'
p1242
I4
sS'devic'
p1243
I3
sS'unorigion'
p1244
I1
sS'perpetu'
p1245
I2
sS'homosexu'
p1246
I2
sS'devis'
p1247
I1
sS'nonexist'
p1248
I1
sS'firm'
p1249
I3
sS'stoopid'
p1250
I1
sS'entertaining-'
p1251
I1
sS'irrespons'
p1252
I2
sS'fire'
p1253
I4
sS'infect'
p1254
I2
sS'39'
p1255
I1
sS'fund'
p1256
I4
sS'deport'
p1257
I1
sS'educ'
p1258
I7
sS'greas'
p1259
I4
sS'coppola'
p1260
I2
sS'errol'
p1261
I1
sS'straight'
p1262
I9
sS'budget'
p1263
I16
sS'cagey'
p1264
I1
sS'error'
p1265
I2
sS'robin'
p1266
I4
sS'real'
p1267
I71
sS'pound'
p1268
I2
sS'technolog'
p1269
I2
sS'astupid'
p1270
I1
sS'invisbl'
p1271
I1
sS'36'
p1272
I1
sS'duckl'
p1273
I1
sS'vow'
p1274
I3
sS'captiv'
p1275
I2
sS'coca-cola'
p1276
I1
sS'chase'
p1277
I7
sS'barney'
p1278
I1
sS'stunk'
p1279
I7
sS'funni'
p1280
I182
sS'stung'
p1281
I1
sS'co-star'
p1282
I1
sS'tower'
p1283
I1
sS'walmart'
p1284
I1
sS'rabid'
p1285
I2
sS'recent'
p1286
I7
sS'kelli'
p1287
I4
sS'person'
p1288
I60
sS'expens'
p1289
I4
sS'elev'
p1290
I2
sS'4hrs'
p1291
I1
sS'tim'
p1292
I8
sS'nc-17'
p1293
I2
sS'detract'
p1294
I3
sS'glitz'
p1295
I1
sS'forrest'
p1296
I2
sS'eeri'
p1297
I1
sS'eager'
p1298
I2
sS'courtney'
p1299
I1
sS'action"'
p1300
I1
sS'saniti'
p1301
I1
sS'australia'
p1302
I3
sS'inconsequenti'
p1303
I1
sS'format'
p1304
I2
sS'hayak'
p1305
I1
sS'lunaci'
p1306
I1
sS'quest'
p1307
I3
sS'unsucess'
p1308
I1
sS'd'
p1309
I67
sS'consensus'
p1310
I2
sS'patrick'
p1311
I1
sS'stylish'
p1312
I1
sS'doolittl'
p1313
I1
sS'encount'
p1314
I2
sS'acknowledg'
p1315
I1
sS'sighn'
p1316
I1
sS'palm'
p1317
I1
sS'sight'
p1318
I3
sS'unquestion'
p1319
I1
sS'curious'
p1320
I1
sS'pale'
p1321
I2
sS'shall'
p1322
I1
sS'dog-gone-it'
p1323
I1
sS'recognit'
p1324
I3
sS'whodunit'
p1325
I1
sS'mummi'
p1326
I2
sS'novelti'
p1327
I1
sS'recogniz'
p1328
I1
sS'machin'
p1329
I8
sS'gremlin'
p1330
I1
sS'unedit'
p1331
I1
sS'reddest'
p1332
I1
sS'requiem'
p1333
I1
sS'grotesqu'
p1334
I4
sS'odor'
p1335
I1
sS'bh'
p1336
I1
sS'agreement'
p1337
I1
sS'umcomfort'
p1338
I1
sS'pietro'
p1339
I1
sS'bw'
p1340
I5
sS'santa'
p1341
I1
sS'bs'
p1342
I2
sS'carol'
p1343
I1
sS'by'
p1344
I243
sS'juvenil'
p1345
I8
sS'loathsom'
p1346
I2
sS'materi'
p1347
I10
sS'revolut'
p1348
I3
sS'clinton'
p1349
I4
sS'colorado'
p1350
I1
sS'irrit'
p1351
I8
sS'into'
p1352
I114
sS'likabl'
p1353
I5
sS'savag'
p1354
I4
sS'span'
p1355
I1
sS'kathleen'
p1356
I1
sS'gross-out'
p1357
I4
sS'custom'
p1358
I1
sS'suit'
p1359
I10
sS'junctur'
p1360
I1
sS'coyot'
p1361
I1
sS'jewish'
p1362
I8
sS'poster'
p1363
I6
sS'overbear'
p1364
I1
sS'archaic'
p1365
I1
sS'line'
p1366
I46
sS'best-thi'
p1367
I1
sS'jacki'
p1368
I11
sS'cia'
p1369
I1
sS'cig'
p1370
I2
sS'horrorfi'
p1371
I1
sS'prelud'
p1372
I2
sS'up'
p1373
I209
sS'us'
p1374
I47
sS'ur'
p1375
I1
sS'um'
p1376
I1
sS'un'
p1377
I1
sS'sum'
p1378
I5
sS'chan'
p1379
I8
sS'haunt'
p1380
I2
sS'char'
p1381
I1
sS'z-z-z-z-z'
p1382
I1
sS'wovi'
p1383
I1
sS'definet'
p1384
I1
sS'phantom'
p1385
I4
sS'tara'
p1386
I2
sS'under-the-top'
p1387
I1
sS'actuali'
p1388
I1
sS'nickolson'
p1389
I1
sS'retract'
p1390
I1
sS'tedium'
p1391
I2
sS'scrub'
p1392
I1
sS'nutti'
p1393
I1
sS'tedius'
p1394
I1
sS'ago'
p1395
I16
sS'land'
p1396
I3
sS'fighter'
p1397
I3
sS'wafer'
p1398
I1
sS'inaccuraci'
p1399
I2
sS'age'
p1400
I15
sS'twaddl'
p1401
I1
sS'chick-flick'
p1402
I2
sS'hella'
p1403
I5
sS'matine'
p1404
I2
sS'overton'
p1405
I1
sS'walker'
p1406
I1
sS'fresh'
p1407
I2
sS'rescuer'
p1408
I1
sS'hello'
p1409
I3
sS'code'
p1410
I1
sS'partial'
p1411
I1
sS'egocentr'
p1412
I1
sS'scratch'
p1413
I1
sS'weatherman'
p1414
I1
sS'broader'
p1415
I1
sS'freakin'
p1416
I4
sS'flashback'
p1417
I1
sS'unfulfil'
p1418
I1
sS'sucked-it'
p1419
I1
sS'young'
p1420
I15
sS'send'
p1421
I9
sS'cheapo'
p1422
I1
sS'cheapi'
p1423
I1
sS'sens'
p1424
I47
sS'scarlett'
p1425
I1
sS'boatload'
p1426
I1
sS'garden'
p1427
I2
sS'sexist'
p1428
I2
sS'disast'
p1429
I8
sS'manhatton'
p1430
I1
sS'distates'
p1431
I1
sS'wipe'
p1432
I3
sS'recip'
p1433
I1
sS'magic'
p1434
I12
sS'from-say'
p1435
I1
sS'harbor'
p1436
I6
sS'eva'
p1437
I1
sS'eve'
p1438
I1
sS'race'
p1439
I22
sS'trite'
p1440
I1
sS'marri'
p1441
I1
sS'leonardo'
p1442
I2
sS'rack'
p1443
I1
sS'ignornat'
p1444
I1
sS'thespian'
p1445
I1
sS'vehicl'
p1446
I5
sS'impli'
p1447
I4
sS'natur'
p1448
I8
sS'whoopti'
p1449
I1
sS'odi'
p1450
I3
sS'video'
p1451
I32
sS'odo'
p1452
I1
sS'adpat'
p1453
I1
sS'odd'
p1454
I6
sS'minuet'
p1455
I1
sS'indian'
p1456
I3
sS'dissapoint'
p1457
I16
sS'bird'
p1458
I1
sS'klingon'
p1459
I1
sS'led'
p1460
I3
sS'lee'
p1461
I6
sS'leg'
p1462
I2
sS'punch'
p1463
I3
sS'leo'
p1464
I6
sS'present--lik'
p1465
I1
sS'let'
p1466
I69
sS'fifteen'
p1467
I6
sS'great'
p1468
I128
sS'fruitcak'
p1469
I1
sS'didnt'
p1470
I13
sS'casino'
p1471
I2
sS'screech'
p1472
I2
sS're-enactor'
p1473
I1
sS'scatter'
p1474
I1
sS'insulin'
p1475
I1
sS'climact'
p1476
I1
sS'popcorn'
p1477
I2
sS'opinion'
p1478
I27
sS'dude-thi'
p1479
I1
sS'maker'
p1480
I19
sS'crosbi'
p1481
I2
sS'emot'
p1482
I15
sS'sgt'
p1483
I1
sS'dumbest'
p1484
I6
sS'zit'
p1485
I1
sS'doubl'
p1486
I5
sS'bush'
p1487
I7
sS'next'
p1488
I39
sS'zig'
p1489
I1
sS'doubt'
p1490
I13
sS'humorless'
p1491
I1
sS'deicid'
p1492
I1
sS'pencil'
p1493
I1
sS'babe'
p1494
I2
sS'shipwreck'
p1495
I1
sS'babi'
p1496
I9
sS'zimmer'
p1497
I1
sS'soooooooo'
p1498
I2
sS'senario'
p1499
I1
sS'rubbish'
p1500
I7
sS'wolv'
p1501
I2
sS'bodili'
p1502
I1
sS'this'
p1503
I2271
sS'aperson'
p1504
I1
sS'pour'
p1505
I1
sS'thin'
p1506
I7
sS'drill'
p1507
I3
sS'coffin'
p1508
I1
sS'thie'
p1509
I1
sS'self-promot'
p1510
I1
sS'weaker'
p1511
I1
sS'envolv'
p1512
I1
sS'bent'
p1513
I1
sS'psiquiatrist'
p1514
I1
sS'process'
p1515
I5
sS'lock'
p1516
I2
sS'high'
p1517
I53
sS'slit'
p1518
I2
sS'bene'
p1519
I1
sS'slip'
p1520
I3
sS'blvd'
p1521
I1
sS'crimin'
p1522
I2
sS'martyr'
p1523
I1
sS'cring'
p1524
I1
sS'achill'
p1525
I1
sS'comedi'
p1526
I96
sS'anakin'
p1527
I1
sS'gump'
p1528
I1
sS'contempt'
p1529
I1
sS'sensless'
p1530
I1
sS'stand'
p1531
I20
sS'everywher'
p1532
I6
sS'hitcher'
p1533
I1
sS'hitchen'
p1534
I1
sS'hawk'
p1535
I1
sS'hawn'
p1536
I1
sS'essenti'
p1537
I4
sS'classi'
p1538
I1
sS'kedwai'
p1539
I1
sS'robot'
p1540
I3
sS'brittani'
p1541
I1
sS'issu'
p1542
I8
sS'proposter'
p1543
I1
sS'writ'
p1544
I1
sS'allow'
p1545
I8
sS'nauceous'
p1546
I1
sS'wolverin'
p1547
I2
sS'houston'
p1548
I1
sS'movi'
p1549
I2326
sS'eileen'
p1550
I1
sS'move'
p1551
I26
sS'marketing-fest'
p1552
I1
sS'perfect'
p1553
I12
sS'decay'
p1554
I1
sS'chosen'
p1555
I2
sS'hobbi'
p1556
I1
sS'kelley'
p1557
I1
sS'mispronounc'
p1558
I1
sS'shudder'
p1559
I1
sS'decad'
p1560
I5
sS'therefor'
p1561
I7
sS'gwenyth'
p1562
I3
sS'cuss'
p1563
I4
sS'legendari'
p1564
I3
sS'python'
p1565
I4
sS'overal'
p1566
I17
sS'bat'
p1567
I1
sS'staar'
p1568
I1
sS'snake'
p1569
I8
sS'kiss'
p1570
I7
sS'waterboy'
p1571
I3
sS'protrub'
p1572
I1
sS'cage'
p1573
I6
sS'realize'
p1574
I2
sS'immaut'
p1575
I1
sS'betti'
p1576
I6
sS'anyth'
p1577
I81
sS'eben'
p1578
I1
sS'truth'
p1579
I7
sS'beneath'
p1580
I4
sS'societi'
p1581
I5
sS'bump'
p1582
I3
sS'jagger'
p1583
I1
sS'consum'
p1584
I1
sS'static'
p1585
I1
sS'thirteen'
p1586
I1
sS'banal'
p1587
I1
sS'bay'
p1588
I3
sS'wander'
p1589
I1
sS'matrix'
p1590
I9
sS'reload'
p1591
I2
sS'extremley'
p1592
I3
sS'anti-whit'
p1593
I3
sS'trulli'
p1594
I1
sS'freack'
p1595
I1
sS'troop'
p1596
I1
sS'shut'
p1597
I7
sS'shakespearian'
p1598
I1
sS'ben-hur'
p1599
I1
sS'templ'
p1600
I1
sS'shue'
p1601
I2
sS'tempt'
p1602
I3
sS'thrust'
p1603
I1
sS'embarrass'
p1604
I15
sS'pothead'
p1605
I2
sS'greedi'
p1606
I2
sS'ameil'
p1607
I1
sS'tourchur'
p1608
I1
sS'could'
p1609
I199
sS'david'
p1610
I8
sS'scari'
p1611
I105
sS'length'
p1612
I3
sS'enforc'
p1613
I2
sS'bah'
p1614
I1
sS'outsid'
p1615
I7
sS'scare'
p1616
I29
sS'blown'
p1617
I4
sS'scene'
p1618
I135
sS'jesus'
p1619
I18
sS'stark'
p1620
I1
sS'owner'
p1621
I3
sS'prank'
p1622
I1
sS'vixen'
p1623
I1
sS'los'
p1624
I1
sS'system'
p1625
I2
sS'dimbulb'
p1626
I1
sS'sergeant'
p1627
I2
sS'termin'
p1628
I5
sS'norton'
p1629
I1
sS'unbear'
p1630
I1
sS'painful'
p1631
I3
sS'stomach'
p1632
I6
sS'accompani'
p1633
I1
sS'aryan'
p1634
I4
sS'chong'
p1635
I1
sS'haven'
p1636
I18
sS'steel'
p1637
I1
sS'bother'
p1638
I26
sS'denju'
p1639
I1
sS'gkass'
p1640
I1
sS'psycholog'
p1641
I2
sS'reckogn'
p1642
I1
sS'torrent'
p1643
I1
sS'steer'
p1644
I2
sS'lamebrain'
p1645
I1
sS'terribl'
p1646
I188
sS'viewer'
p1647
I18
sS'partnership'
p1648
I1
sS'outhous'
p1649
I1
sS'element'
p1650
I6
sS'fluffi'
p1651
I1
sS'biik'
p1652
I1
sS'lili'
p1653
I3
sS'accuraci'
p1654
I3
sS'schwartzaneggar'
p1655
I1
sS'linda'
p1656
I1
sS'probli'
p1657
I1
sS'latino'
p1658
I1
sS'soap'
p1659
I2
sS'reservior'
p1660
I1
sS'altman'
p1661
I3
sS'bowlingfortruth'
p1662
I1
sS'lunch"'
p1663
I1
sS'placement'
p1664
I2
sS'disastor'
p1665
I1
sS'face'
p1666
I27
sS'oldman'
p1667
I2
sS'bret'
p1668
I4
sS'fact'
p1669
I65
sS'nutrit'
p1670
I1
sS'bring'
p1671
I17
sS'lloyd'
p1672
I1
sS'johnni'
p1673
I4
sS'bedroom'
p1674
I1
sS'ripoff'
p1675
I3
sS'trivial'
p1676
I1
sS'noir'
p1677
I2
sS'nois'
p1678
I2
sS'jay'
p1679
I2
sS'jaw'
p1680
I5
sS'mute'
p1681
I1
sS'jar'
p1682
I3
sS'should'
p1683
I188
sS'gestur'
p1684
I1
sS'jam'
p1685
I1
sS'tape'
p1686
I13
sS'intrigu'
p1687
I3
sS'flinch'
p1688
I1
sS'hope'
p1689
I42
sS'meant'
p1690
I6
sS'insight'
p1691
I2
sS'testement'
p1692
I1
sS'satisfact'
p1693
I1
sS'familiar'
p1694
I4
sS'passeng'
p1695
I1
sS'lucki'
p1696
I2
sS'antagonist'
p1697
I4
sS'hammi'
p1698
I1
sS'smash'
p1699
I1
sS'centerist'
p1700
I2
sS'dumbsh'
p1701
I1
sS'h'
p1702
I6
sS'rapper'
p1703
I1
sS'glasgow'
p1704
I1
sS'reid'
p1705
I2
sS'stuff'
p1706
I34
sS'whisperer"'
p1707
I1
sS'ohio'
p1708
I1
sS'exhagger'
p1709
I1
sS'withstand'
p1710
I1
sS'btw'
p1711
I1
sS'unimport'
p1712
I2
sS'need--such'
p1713
I1
sS'frame'
p1714
I1
sS'armegeddon'
p1715
I2
sS'10-year-old'
p1716
I1
sS'wire'
p1717
I2
sS'superhero'
p1718
I2
sS'pseudo-intelligentsia'
p1719
I1
sS'nuclear'
p1720
I2
sS'see-through'
p1721
I1
sS'misus'
p1722
I1
sS'destini'
p1723
I1
sS'borscht'
p1724
I1
sS'harsher'
p1725
I1
sS'email'
p1726
I1
sS'axelrod2003'
p1727
I1
sS'dislik'
p1728
I6
sS'midichlorian'
p1729
I1
sS'undoubt'
p1730
I1
sS'unwitti'
p1731
I1
sS'heartwarm'
p1732
I1
sS'bridget'
p1733
I1
sS'waaaaaayyyyy'
p1734
I1
sS'drug'
p1735
I12
sS'jodi'
p1736
I3
sS'arrrgh'
p1737
I1
sS'rami'
p1738
I1
sS'll'
p1739
I52
sS'gorgeous'
p1740
I1
sS'extent'
p1741
I3
sS'weakmind'
p1742
I1
sS'cg'
p1743
I2
sS'incest'
p1744
I1
sS'carbon'
p1745
I2
sS'cr'
p1746
I2
sS'uck'
p1747
I1
sS'beastmast'
p1748
I1
sS'molfan'
p1749
I1
sS'obstacl'
p1750
I2
sS'triniti'
p1751
I4
sS'insuffici'
p1752
I1
sS'lu'
p1753
I1
sS'film--lik'
p1754
I1
sS'feather'
p1755
I2
sS'immedi'
p1756
I2
sS'merki'
p1757
I1
sS'sheepish'
p1758
I1
sS'accident'
p1759
I2
sS'togeth'
p1760
I29
sS'meteor'
p1761
I1
sS'shockingly-inappropir'
p1762
I2
sS'ounc'
p1763
I1
sS'bathtub'
p1764
I5
sS'maul'
p1765
I2
sS'sith'
p1766
I1
sS'sleazy-look'
p1767
I1
sS've'
p1768
I136
sS'ripe'
p1769
I1
sS'salma'
p1770
I2
sS'site'
p1771
I6
sS'misguid'
p1772
I1
sS'lust'
p1773
I1
sS'vs'
p1774
I9
sS'vu'
p1775
I1
sS'ransom'
p1776
I1
sS'tattoo'
p1777
I2
sS'denial'
p1778
I4
sS'mutat'
p1779
I4
sS'tupac'
p1780
I4
sS'matthew'
p1781
I2
sS'pauli'
p1782
I1
sS'competit'
p1783
I1
sS'balm'
p1784
I1
sS'ball'
p1785
I4
sS'peic'
p1786
I10
sS'dusk'
p1787
I1
sS'bale'
p1788
I2
sS'drink'
p1789
I3
sS'upon'
p1790
I11
sS'coffe'
p1791
I1
sS'iago'
p1792
I1
sS'broccoli'
p1793
I1
sS'expand'
p1794
I1
sS'off'
p1795
I124
sS'forty-eight'
p1796
I1
sS'devalu'
p1797
I1
sS'exampl'
p1798
I25
sS'command'
p1799
I1
sS'350'
p1800
I1
sS'depict'
p1801
I10
sS'overkil'
p1802
I1
sS'lest'
p1803
I2
sS'pie-'
p1804
I1
sS'lession'
p1805
I1
sS'paus'
p1806
I1
sS'flesh'
p1807
I3
sS'humor-'
p1808
I1
sS'pee-we'
p1809
I1
sS'paul'
p1810
I1
sS'maggoo'
p1811
I1
sS'pie3'
p1812
I1
sS'web'
p1813
I1
sS'generous'
p1814
I1
sS'wee'
p1815
I2
sS'wed'
p1816
I2
sS'pompous'
p1817
I1
sS'sucksbigmonkeynut'
p1818
I1
sS'ectoplasm'
p1819
I1
sS'wes'
p1820
I3
sS'arrest'
p1821
I4
sS'wet'
p1822
I2
sS'compet'
p1823
I4
sS'billionair'
p1824
I1
sS'crud'
p1825
I5
sS'piec'
p1826
I99
sS'smithsonian'
p1827
I2
sS'cruz'
p1828
I2
sS'five'
p1829
I12
sS'desi'
p1830
I1
sS'tick'
p1831
I1
sS'resid'
p1832
I1
sS'corpor'
p1833
I3
sS'farrelli'
p1834
I1
sS'crise'
p1835
I1
sS'imprison'
p1836
I2
sS'galliant'
p1837
I1
sS'bigotri'
p1838
I1
sS'lamest'
p1839
I3
sS'crisi'
p1840
I2
sS'incens'
p1841
I1
sS'captur'
p1842
I9
sS'bleedin'
p1843
I1
sS'intoler'
p1844
I3
sS'big-budget'
p1845
I1
sS'elitist'
p1846
I1
sS'whqat'
p1847
I1
sS'thier'
p1848
I3
sS'transport'
p1849
I1
sS'henchman'
p1850
I1
sS'feder'
p1851
I1
sS'disbelief'
p1852
I2
sS'avoid'
p1853
I42
sS'blurri'
p1854
I1
sS'occasionally-amus'
p1855
I1
sS'passion'
p1856
I10
sS'kiddi'
p1857
I2
sS'stairway'
p1858
I1
sS'saltzman'
p1859
I1
sS'naff'
p1860
I1
sS'gandalf'
p1861
I1
sS'stage'
p1862
I2
sS'sister'
p1863
I4
sS'documentari'
p1864
I13
sS'favor--stay'
p1865
I1
sS'rustun'
p1866
I1
sS'clooney'
p1867
I6
sS'part-tim'
p1868
I1
sS'torcher'
p1869
I1
sS'stultifi'
p1870
I2
sS'playth'
p1871
I1
sS'mere'
p1872
I7
sS'merg'
p1873
I1
sS'sander'
p1874
I1
sS'assumpt'
p1875
I1
sS'ditsi'
p1876
I1
sS'restraunt'
p1877
I1
sS'fish-slap'
p1878
I1
sS'epitimi'
p1879
I1
sS'function'
p1880
I1
sS'tina'
p1881
I1
sS'innoc'
p1882
I1
sS'manupul'
p1883
I1
sS'gaynor'
p1884
I1
sS'grate'
p1885
I3
sS'rectum'
p1886
I1
sS'apollo'
p1887
I1
sS'count'
p1888
I5
sS'tini'
p1889
I4
sS'nickelson'
p1890
I2
sS'otherwis'
p1891
I24
sS'problem'
p1892
I18
sS'krueger'
p1893
I2
sS'cordial'
p1894
I1
sS'irish'
p1895
I3
sS'fairytal'
p1896
I1
sS'tybalt'
p1897
I1
sS'm-o-v-i-'
p1898
I1
sS'ing'
p1899
I4
sS'recomend'
p1900
I4
sS'nonetheless'
p1901
I1
sS'blaber'
p1902
I1
sS'cliffhang'
p1903
I1
sS'behold'
p1904
I1
sS'over-act'
p1905
I1
sS'repeat'
p1906
I6
sS'straddl'
p1907
I1
sS'veil'
p1908
I1
sS'vein'
p1909
I2
sS'ghost'
p1910
I1
sS'muder'
p1911
I1
sS'lestat'
p1912
I5
sS'rep'
p1913
I1
sS'sincer'
p1914
I2
sS'buoy'
p1915
I1
sS'upsid'
p1916
I1
sS'porno'
p1917
I3
sS'spew'
p1918
I2
sS'bludgeon'
p1919
I2
sS'edward'
p1920
I1
sS'modern-day'
p1921
I1
sS'stinki'
p1922
I2
sS'stinko'
p1923
I1
sS'worth'
p1924
I49
sS'lack'
p1925
I34
sS'unpopular'
p1926
I3
sS'simmon'
p1927
I1
sS'distort'
p1928
I1
sS'manic'
p1929
I2
sS'jacob'
p1930
I1
sS'film-mak'
p1931
I1
sS'poppi'
p1932
I2
sS'samurai'
p1933
I1
sS'quasi-rang'
p1934
I1
sS'red'
p1935
I7
sS'triumph'
p1936
I1
sS'scurril'
p1937
I1
sS'definat'
p1938
I2
sS'speci'
p1939
I1
sS'preacher'
p1940
I1
sS'hors'
p1941
I5
sS'blasphemi'
p1942
I4
sS'sorriest'
p1943
I2
sS'screenit'
p1944
I1
sS'low-brow'
p1945
I1
sS'amus'
p1946
I12
sS'bleep'
p1947
I1
sS'hmmm'
p1948
I2
sS'told'
p1949
I13
sS'neeson'
p1950
I3
sS'pluto'
p1951
I2
sS'pleasur'
p1952
I3
sS'daughter'
p1953
I13
sS'corleon'
p1954
I1
sS'bigtim'
p1955
I1
sS'deceipt'
p1956
I2
sS'cash--unless'
p1957
I1
sS'smoke'
p1958
I5
sS'aka'
p1959
I1
sS'sponser'
p1960
I1
sS'bro'
p1961
I2
sS'shun'
p1962
I1
sS'attitud'
p1963
I7
sS'hindsight'
p1964
I1
sS'spooki'
p1965
I2
sS'total'
p1966
I85
sS'bra'
p1967
I1
sS'plot'
p1968
I206
sS'ploy'
p1969
I3
sS'insult'
p1970
I33
sS'iq'
p1971
I9
sS'foxxi'
p1972
I1
sS'byne'
p1973
I1
sS'indiana'
p1974
I3
sS'is'
p1975
I1654
sS'knole'
p1976
I1
sS'unfortunat'
p1977
I2
sS'dicapprio'
p1978
I1
sS'haha'
p1979
I1
sS'award'
p1980
I8
sS'mathew'
p1981
I1
sS'overrun'
p1982
I1
sS'1991'
p1983
I1
sS'word'
p1984
I54
sS'wore'
p1985
I1
sS'jess'
p1986
I1
sS'1998'
p1987
I1
sS'work'
p1988
I65
sS'pierc'
p1989
I4
sS'erf'
p1990
I1
sS'wors'
p1991
I68
sS'era'
p1992
I4
sS'jamal'
p1993
I1
sS'appropri'
p1994
I3
sS'eyebal'
p1995
I1
sS'ricahard'
p1996
I1
sS'repos'
p1997
I2
sS'better-i'
p1998
I1
sS'indic'
p1999
I2
sS'woman'
p2000
I36
sS'gigant'
p2001
I1
sS'ordinari'
p2002
I2
sS'egyptian'
p2003
I1
sS're-air'
p2004
I1
sS'shakin'
p2005
I1
sS'foulest'
p2006
I1
sS'interview'
p2007
I5
sS'disappoint'
p2008
I63
sS'beach'
p2009
I3
sS'lal'
p2010
I1
sS'mako'
p2011
I1
sS'fever'
p2012
I1
sS'recogn'
p2013
I1
sS'lad'
p2014
I1
sS'chines'
p2015
I3
sS'after'
p2016
I119
sS'lay'
p2017
I3
sS'law'
p2018
I8
sS'lap'
p2019
I1
sS'demonstr'
p2020
I1
sS'porpous'
p2021
I1
sS'domin'
p2022
I5
sS'schneider'
p2023
I1
sS'hypocrit'
p2024
I1
sS'detent'
p2025
I1
sS'greek'
p2026
I3
sS'green'
p2027
I12
sS'waitress'
p2028
I1
sS'fan'
p2029
I52
sS'order'
p2030
I7
sS'dirtiest'
p2031
I1
sS'funfest'
p2032
I1
sS'us-america'
p2033
I1
sS'typewrit'
p2034
I1
sS'incid'
p2035
I3
sS'japan'
p2036
I2
sS'shean'
p2037
I1
sS'premisci'
p2038
I1
sS'offic'
p2039
I9
sS'motorist'
p2040
I1
sS'begot'
p2041
I1
sS'then'
p2042
I107
sS'them'
p2043
I108
sS'thee'
p2044
I1
sS'safe'
p2045
I1
sS'break'
p2046
I21
sS'band'
p2047
I2
sS'bang'
p2048
I2
sS'tbwp'
p2049
I2
sS'bana'
p2050
I1
sS'they'
p2051
I413
sS'lifelong'
p2052
I1
sS'ther'
p2053
I1
sS'bank'
p2054
I5
sS'bread'
p2055
I1
sS'dehuman'
p2056
I1
sS'terrribl'
p2057
I1
sS'l'
p2058
I12
sS'no-brain'
p2059
I1
sS'rocki'
p2060
I3
sS'thruout'
p2061
I1
sS'tootsi'
p2062
I1
sS'slaveri'
p2063
I5
sS'pedophyl'
p2064
I1
sS'moviego'
p2065
I2
sS'jobeth'
p2066
I1
sS'shatner'
p2067
I2
sS'sled'
p2068
I1
sS'webber'
p2069
I1
sS'flock'
p2070
I1
sS'ommit'
p2071
I1
sS'jeesus'
p2072
I1
sS'wga'
p2073
I1
sS'palat'
p2074
I1
sS'diesel'
p2075
I6
sS'daniel'
p2076
I2
sS'monro'
p2077
I1
sS'forth'
p2078
I2
sS'forti'
p2079
I1
sS'standard'
p2080
I12
sS'nth'
p2081
I1
sS'estevez'
p2082
I1
sS'lousi'
p2083
I8
sS'maniac'
p2084
I4
sS'angl'
p2085
I5
sS'angi'
p2086
I1
sS'renew'
p2087
I2
sS'dogvillian'
p2088
I3
sS'subtl'
p2089
I4
sS'caprici'
p2090
I1
sS'flick'
p2091
I55
sS'bonham-cart'
p2092
I1
sS'independ'
p2093
I4
sS'comic'
p2094
I20
sS'nomin'
p2095
I1
sS'dogg'
p2096
I3
sS'neck'
p2097
I1
sS'dumbass'
p2098
I1
sS'rater'
p2099
I1
sS'john'
p2100
I35
sS'ludicros'
p2101
I1
sS'built-in'
p2102
I1
sS'albert'
p2103
I2
sS'war-lov'
p2104
I1
sS'leota'
p2105
I1
sS'happili'
p2106
I1
sS'toronto'
p2107
I1
sS'pakistani'
p2108
I1
sS'target'
p2109
I3
sS'kung-fu'
p2110
I1
sS'provid'
p2111
I4
sS'hike'
p2112
I1
sS'rate'
p2113
I84
sS'spaceship'
p2114
I2
sS'merci'
p2115
I2
sS'guilt'
p2116
I2
sS'iron'
p2117
I7
sS'minut'
p2118
I97
sS'minus'
p2119
I4
sS'salvag'
p2120
I3
sS'pessimist'
p2121
I1
sS'manner'
p2122
I4
sS'bleeech'
p2123
I1
sS'subsid'
p2124
I1
sS'nitro'
p2125
I1
sS'bizzar'
p2126
I1
sS'ponder'
p2127
I2
sS'strength'
p2128
I1
sS'realm'
p2129
I2
sS'laden'
p2130
I1
sS'latter'
p2131
I3
sS'casual'
p2132
I1
sS'transmit'
p2133
I1
sS'spealberg'
p2134
I1
sS'germani'
p2135
I1
sS'bruce'
p2136
I9
sS'unsophist'
p2137
I1
sS'volleybal'
p2138
I1
sS'phase'
p2139
I1
sS'grave'
p2140
I5
sS'excus'
p2141
I22
sS'alumni'
p2142
I1
sS'pa-thet-'
p2143
I1
sS'notion'
p2144
I2
sS'opposit'
p2145
I1
sS'bimbo'
p2146
I4
sS'philand'
p2147
I1
sS'involv'
p2148
I22
sS'timmmmee'
p2149
I1
sS'hrs'
p2150
I1
sS'glasnost'
p2151
I1
sS'predecessor'
p2152
I2
sS'do'
p2153
I226
sS'exorcist"'
p2154
I1
sS'nasti'
p2155
I8
sS'de'
p2156
I7
sS'dr'
p2157
I10
sS'gearg'
p2158
I1
sS'diabet'
p2159
I1
sS'ahhhhhhh'
p2160
I1
sS'gaul'
p2161
I1
sS'sux'
p2162
I1
sS'steal'
p2163
I1
sS'steam'
p2164
I3
sS'pocahonta'
p2165
I1
sS'misdirect'
p2166
I1
sS'assualt'
p2167
I1
sS'scourg'
p2168
I2
sS'themselv'
p2169
I16
sS'sewag'
p2170
I1
sS'horrendouz'
p2171
I1
sS'awar'
p2172
I3
sS'away'
p2173
I47
sS'gentleman'
p2174
I1
sS'pastey'
p2175
I2
sS'hillbilli'
p2176
I1
sS'hoolywood'
p2177
I1
sS'awak'
p2178
I4
sS'drawn'
p2179
I8
sS'reggi'
p2180
I1
sS'2-hour'
p2181
I1
sS'inton'
p2182
I1
sS'accord'
p2183
I4
sS'wb'
p2184
I1
sS'uninspir'
p2185
I8
sS'theresa'
p2186
I1
sS'ws'
p2187
I1
sS'films-'
p2188
I1
sS'oomph'
p2189
I1
sS'bras'
p2190
I1
sS'cop'
p2191
I6
sS'fantasyland'
p2192
I1
sS'han'
p2193
I1
sS'cow'
p2194
I4
sS'brat'
p2195
I5
sS'excrement'
p2196
I3
sS'howev'
p2197
I30
sS'ilm'
p2198
I1
sS'brag'
p2199
I1
sS'extraordinarili'
p2200
I1
sS'brad'
p2201
I4
sS'com'
p2202
I5
sS'bran'
p2203
I1
sS'con'
p2204
I2
sS'tone'
p2205
I4
sS'spear'
p2206
I1
sS'toni'
p2207
I2
sS'trunk'
p2208
I1
sS'guis'
p2209
I1
sS'believethes'
p2210
I1
sS'guin'
p2211
I1
sS'shakespear'
p2212
I6
sS'paradis'
p2213
I1
sS'speak'
p2214
I7
sS'reveng'
p2215
I4
sS'convolut'
p2216
I3
sS'plantat'
p2217
I1
sS'dumb-ass'
p2218
I2
sS'charisma'
p2219
I1
sS'petti'
p2220
I3
sS'japane'
p2221
I1
sS'prison'
p2222
I2
sS'sinis'
p2223
I1
sS'fest'
p2224
I4
sS'gnr'
p2225
I1
sS'davison'
p2226
I1
sS'east'
p2227
I3
sS'properti'
p2228
I1
sS'air'
p2229
I9
sS'aim'
p2230
I3
sS'ehhhhh'
p2231
I1
sS'ain'
p2232
I1
sS'micheal'
p2233
I1
sS'thrash'
p2234
I2
sS'aid'
p2235
I1
sS'vagu'
p2236
I3
sS'succes'
p2237
I1
sS'stink'
p2238
I21
sS'dizzi'
p2239
I2
sS'mcdormand'
p2240
I1
sS'uplift'
p2241
I3
sS'anti-semit'
p2242
I5
sS'perform'
p2243
I46
sS'descend'
p2244
I1
sS'jerri'
p2245
I9
sS'hank'
p2246
I12
sS'raid'
p2247
I1
sS'fuss'
p2248
I2
sS'evid'
p2249
I3
sS'quentin'
p2250
I4
sS'hang'
p2251
I6
sS'rain'
p2252
I4
sS'hand'
p2253
I16
sS'pseudo-art'
p2254
I1
sS'norwegian'
p2255
I1
sS'rais'
p2256
I2
sS'whatever-it-wa'
p2257
I2
sS'campi'
p2258
I3
sS'kept'
p2259
I17
sS'scenario'
p2260
I3
sS'1977'
p2261
I3
sS'1600'
p2262
I1
sS'1975'
p2263
I1
sS'tht'
p2264
I1
sS'drip'
p2265
I2
sS'epp'
p2266
I2
sS'1970'
p2267
I1
sS'tho'
p2268
I1
sS'contact'
p2269
I3
sS'thi'
p2270
I1
sS'the'
p2271
I5162
sS'tha'
p2272
I1
sS'reposo'
p2273
I1
sS'photo'
p2274
I1
sS'farther'
p2275
I1
sS'victim'
p2276
I7
sS'pac-man'
p2277
I1
sS'josh'
p2278
I3
sS'shout'
p2279
I2
sS'spread'
p2280
I5
sS'board'
p2281
I5
sS'yech'
p2282
I1
sS'zillion'
p2283
I1
sS'borefest'
p2284
I2
sS'mayb'
p2285
I46
sS'leatherfac'
p2286
I1
sS'retread'
p2287
I1
sS'arab'
p2288
I2
sS'leagu'
p2289
I1
sS'picasso'
p2290
I1
sS'inadmiss'
p2291
I1
sS'hairless'
p2292
I1
sS'riddl'
p2293
I2
sS'cooler'
p2294
I1
sS'sorvino'
p2295
I1
sS'night'
p2296
I33
sS'webb'
p2297
I1
sS'imagin'
p2298
I19
sS'manual'
p2299
I1
sS'born'
p2300
I5
sS'neva'
p2301
I1
sS'bore'
p2302
I257
sS'orchid'
p2303
I1
sS'humor'
p2304
I45
sS'existenti'
p2305
I3
sS'overcom'
p2306
I1
sS'profanity-fil'
p2307
I2
sS'peel'
p2308
I1
sS'tissue-thin'
p2309
I1
sS'pose'
p2310
I1
sS'plz'
p2311
I3
sS'thge'
p2312
I1
sS'jackhamm'
p2313
I1
sS'posses'
p2314
I1
sS'post'
p2315
I5
sS'sensationalist'
p2316
I1
sS'peev'
p2317
I1
sS'whomev'
p2318
I2
sS'diner'
p2319
I1
sS'literatur'
p2320
I2
sS'miracul'
p2321
I1
sS'dsiappoint'
p2322
I1
sS'capper'
p2323
I1
sS'bounc'
p2324
I1
sS'float'
p2325
I3
sS'profession'
p2326
I2
sS'bound'
p2327
I2
sS'curios'
p2328
I3
sS'opportun'
p2329
I3
sS'lewd'
p2330
I2
sS'ole'
p2331
I2
sS'wan'
p2332
I1
sS'repart'
p2333
I1
sS'quirki'
p2334
I2
sS'overblown'
p2335
I2
sS'fight'
p2336
I33
sS'way'
p2337
I176
sS'wax'
p2338
I2
sS'was'
p2339
I1598
sS'war'
p2340
I45
sS'containm'
p2341
I1
sS'lowest'
p2342
I6
sS'morphus'
p2343
I1
sS'somehow'
p2344
I7
sS'taken'
p2345
I8
sS'voorh'
p2346
I1
sS'maxin'
p2347
I1
sS'true'
p2348
I38
sS'reset'
p2349
I1
sS'absent'
p2350
I3
sS'mtv'
p2351
I3
sS'maximum'
p2352
I1
sS'anem'
p2353
I1
sS'crystal'
p2354
I4
sS'inaccur'
p2355
I4
sS'retir'
p2356
I3
sS'reattach'
p2357
I1
sS'flair--not'
p2358
I1
sS'nicholson'
p2359
I6
sS'abstract'
p2360
I2
sS'stallon'
p2361
I4
sS'request'
p2362
I1
sS'nuditi'
p2363
I14
sS'mole'
p2364
I1
sS'poodl'
p2365
I1
sS'uncorrupt'
p2366
I1
sS'stake'
p2367
I1
sS'jone'
p2368
I5
sS'test'
p2369
I3
sS'frolic'
p2370
I1
sS'realiti'
p2371
I22
sS'minldess'
p2372
I2
sS'macabr'
p2373
I1
sS'flay'
p2374
I1
sS'gobbl'
p2375
I3
sS'outdat'
p2376
I2
sS'loyal'
p2377
I2
sS'cheater'
p2378
I1
sS'concept'
p2379
I17
sS'global'
p2380
I2
sS'supplement'
p2381
I1
sS'middl'
p2382
I7
sS'zone'
p2383
I1
sS'flash'
p2384
I5
sS'rhythm'
p2385
I1
sS'terror'
p2386
I9
sS'brown'
p2387
I1
sS'blast'
p2388
I1
sS'goofiest'
p2389
I1
sS'kelter'
p2390
I1
sS'cunningham'
p2391
I1
sS'aaaaarrrrrggggghhhhh'
p2392
I1
sS'reconcil'
p2393
I1
sS'gun'
p2394
I14
sS'gum'
p2395
I2
sS'gus'
p2396
I1
sS'p'
p2397
I7
sS'soooo'
p2398
I7
sS'gut'
p2399
I6
sS'guy'
p2400
I102
sS'upper'
p2401
I2
sS'hte'
p2402
I1
sS'brave'
p2403
I2
sS'regret'
p2404
I7
sS'stupefi'
p2405
I1
sS'bravo'
p2406
I1
sS'alfi'
p2407
I1
sS'everytim'
p2408
I3
sS'cost'
p2409
I24
sS'alfr'
p2410
I2
sS'rough'
p2411
I2
sS'rapist'
p2412
I2
sS'appear'
p2413
I13
sS'uniform'
p2414
I3
sS'bigbabi'
p2415
I2
sS'goldblum'
p2416
I2
sS'appeal'
p2417
I16
sS'devil-whor'
p2418
I1
sS'gawd'
p2419
I2
sS'unimaginit'
p2420
I1
sS'satisfi'
p2421
I2
sS'auberjonio'
p2422
I1
sS'teacher'
p2423
I3
sS'buck'
p2424
I18
sS'burt'
p2425
I1
sS'precursor'
p2426
I1
sS'alllll'
p2427
I1
sS'trial'
p2428
I1
sS'whatsov'
p2429
I2
sS'regardless'
p2430
I4
sS'extra'
p2431
I3
sS'bullock'
p2432
I2
sS'fbi'
p2433
I4
sS'loutish'
p2434
I1
sS'market'
p2435
I7
sS'anesthet'
p2436
I1
sS'prove'
p2437
I22
sS'angela'
p2438
I1
sS'unctuous'
p2439
I1
sS'live'
p2440
I41
sS'schlock'
p2441
I1
sS'suppos'
p2442
I48
sS'bigg'
p2443
I6
sS'gentlemen"'
p2444
I1
sS'horrorshow'
p2445
I1
sS'club'
p2446
I5
sS'clue'
p2447
I8
sS'gwyne'
p2448
I1
sS'graphic'
p2449
I14
sS'shelv'
p2450
I1
sS'car'
p2451
I28
sS'prepar'
p2452
I4
sS'cap'
p2453
I1
sS'cat'
p2454
I17
sS'can'
p2455
I339
sS'angrilli'
p2456
I1
sS'far-fetch'
p2457
I1
sS'death-induc'
p2458
I1
sS'topic'
p2459
I5
sS'heard'
p2460
I33
sS'abort'
p2461
I4
sS'chin'
p2462
I1
sS'occur'
p2463
I4
sS'multipl'
p2464
I3
sS'bankrupt'
p2465
I1
sS'economi'
p2466
I2
sS'write'
p2467
I26
sS'nihilist'
p2468
I6
sS'nonstop'
p2469
I1
sS'product'
p2470
I16
sS'pygmmalion'
p2471
I2
sS'shooter'
p2472
I1
sS'coars'
p2473
I3
sS'southern'
p2474
I5
sS'lancast'
p2475
I1
sS'therbi'
p2476
I1
sS'bankabl'
p2477
I1
sS'favorit'
p2478
I11
sS'over-hyp'
p2479
I3
sS'offens'
p2480
I17
sS'offend'
p2481
I10
sS'kurt'
p2482
I2
sS'stilt'
p2483
I1
sS'infiltr'
p2484
I1
sS'approv'
p2485
I1
sS'divin'
p2486
I2
sS'brain'
p2487
I18
sS'stile'
p2488
I4
sS'1990i'
p2489
I1
sS'cold'
p2490
I10
sS'still'
p2491
I84
sS'dynam'
p2492
I1
sS'sprinkl'
p2493
I1
sS'window'
p2494
I2
sS'mediocr'
p2495
I6
sS'factual'
p2496
I1
sS'non'
p2497
I2
sS'recal'
p2498
I10
sS'halt'
p2499
I1
sS'wealthi'
p2500
I1
sS'nod'
p2501
I1
sS'evoc'
p2502
I1
sS'bilko'
p2503
I1
sS'flint'
p2504
I1
sS'1950'
p2505
I3
sS'half'
p2506
I41
sS'not'
p2507
I705
sS'naiviti'
p2508
I1
sS'discust'
p2509
I1
sS'now'
p2510
I85
sS'hall'
p2511
I14
sS'nor'
p2512
I12
sS'introduct'
p2513
I1
sS'wont'
p2514
I4
sS'lier'
p2515
I1
sS'honker'
p2516
I1
sS'drop'
p2517
I13
sS'magazin'
p2518
I1
sS'januari'
p2519
I1
sS'courag'
p2520
I1
sS'wonk'
p2521
I1
sS'em'
p2522
I5
sS'en'
p2523
I1
sS'ei'
p2524
I1
sS'eh'
p2525
I1
sS'ed'
p2526
I3
sS'eg'
p2527
I1
sS'kane'
p2528
I2
sS'yeah'
p2529
I16
sS'eb'
p2530
I1
sS'sugari'
p2531
I1
sS'sandwich'
p2532
I1
sS'ex'
p2533
I2
sS'year'
p2534
I103
sS'okay'
p2535
I21
sS'happen'
p2536
I72
sS'es'
p2537
I1
sS'album'
p2538
I2
sS'shown'
p2539
I12
sS'accomplish'
p2540
I3
sS'jingoist'
p2541
I1
sS'ironi'
p2542
I1
sS'1995'
p2543
I1
sS'carv'
p2544
I2
sS'cart'
p2545
I1
sS'existentialist'
p2546
I1
sS'cari'
p2547
I1
sS'rebel'
p2548
I2
sS'good-hearted'
p2549
I1
sS'card'
p2550
I5
sS'care'
p2551
I62
sS'scarri'
p2552
I5
sS'couldn'
p2553
I72
sS'british'
p2554
I13
sS'honest'
p2555
I25
sS'19th-centuri'
p2556
I1
sS'profess'
p2557
I2
sS'blind'
p2558
I3
sS'twenty-someth'
p2559
I1
sS'yourself'
p2560
I23
sS'aagghhwwww'
p2561
I1
sS'costner'
p2562
I3
sS'ring'
p2563
I9
sS'drove'
p2564
I2
sS'tomorrow'
p2565
I3
sS'size'
p2566
I3
sS'sheep'
p2567
I1
sS'sheer'
p2568
I2
sS'1996'
p2569
I2
sS'sheet'
p2570
I1
sS'silent'
p2571
I3
sS'lampoon'
p2572
I2
sS'caught'
p2573
I3
sS'silenc'
p2574
I3
sS'tragic'
p2575
I1
sS'breez'
p2576
I1
sS'let-down'
p2577
I1
sS'w-o-r-s-'
p2578
I1
sS'friend'
p2579
I41
sS'frasier'
p2580
I3
sS'thar'
p2581
I1
sS'adequaci'
p2582
I1
sS'especi'
p2583
I28
sS'coltrain'
p2584
I1
sS'apolog'
p2585
I3
sS'quak'
p2586
I1
sS'x2'
p2587
I1
sS'than'
p2588
I183
sS'appleg'
p2589
I4
sS'seuss'
p2590
I3
sS'fruiti'
p2591
I3
sS'pablum'
p2592
I1
sS'optimist'
p2593
I1
sS'extinguish'
p2594
I1
sS'unecessari'
p2595
I1
sS'delic'
p2596
I1
sS'angel'
p2597
I3
sS'premier'
p2598
I1
sS'anywher'
p2599
I6
sS'slap'
p2600
I3
sS'13th'
p2601
I7
sS'slam'
p2602
I2
sS'deliv'
p2603
I9
sS'anger'
p2604
I1
sS'rooki'
p2605
I2
sS'breakfast'
p2606
I1
sS'slab'
p2607
I1
sS'cavemen'
p2608
I1
sS'veteran'
p2609
I1
sS'deuc'
p2610
I1
sS'omnipres'
p2611
I1
sS'satellit'
p2612
I1
sS'titland'
p2613
I1
sS'diesal'
p2614
I1
sS'similiar'
p2615
I1
sS'deus'
p2616
I1
sS'begin'
p2617
I47
sS'prick'
p2618
I1
sS'price'
p2619
I5
sS'rankin'
p2620
I1
sS'disturbimg'
p2621
I1
sS'apocalypt'
p2622
I1
sS'repris'
p2623
I1
sS'america'
p2624
I26
sS'family-friend'
p2625
I3
sS'rescu'
p2626
I6
sS'dream'
p2627
I11
sS'hurley'
p2628
I1
sS'crossov'
p2629
I2
sS'steadi'
p2630
I1
sS'partisan'
p2631
I1
sS'german'
p2632
I3
sS'cowardic'
p2633
I1
sS'so-cal'
p2634
I5
sS'rendit'
p2635
I1
sS'handwrit'
p2636
I1
sS'fifth'
p2637
I1
sS'ground'
p2638
I5
sS'aint'
p2639
I3
sS'onli'
p2640
I275
sS'snack'
p2641
I1
sS'stair'
p2642
I2
sS'anencephali'
p2643
I1
sS'mitzi'
p2644
I1
sS'joli'
p2645
I10
sS'shrill'
p2646
I1
sS'occumm'
p2647
I1
sS'cannon'
p2648
I1
sS'samuel'
p2649
I5
sS'loath'
p2650
I3
sS'cannot'
p2651
I28
sS'wahlberg'
p2652
I2
sS'truli'
p2653
I34
sS'culpabl'
p2654
I1
sS'raunchi'
p2655
I4
sS'leather'
p2656
I2
sS'seldom'
p2657
I1
sS'hostil'
p2658
I2
sS'day-car'
p2659
I1
sS'intermitt'
p2660
I1
sS'amanda'
p2661
I5
sS'husband'
p2662
I21
sS'concert'
p2663
I1
sS'burst'
p2664
I1
sS'unfil'
p2665
I1
sS'pharise'
p2666
I1
sS'asleep'
p2667
I51
sS'sport'
p2668
I4
sS'concern'
p2669
I4
sS'ambl'
p2670
I1
sS'devil-angel'
p2671
I1
sS'3'
p2672
I40
sS'between'
p2673
I30
sS'ambivil'
p2674
I1
sS'hurtl'
p2675
I1
sS'prettiest'
p2676
I1
sS'blame'
p2677
I10
sS'comeback'
p2678
I2
sS'rateital'
p2679
I3
sS'comed'
p2680
I4
sS'self-interest'
p2681
I1
sS'inconsist'
p2682
I2
sS'roof'
p2683
I3
sS'prequel'
p2684
I1
sS'150'
p2685
I1
sS'camcord'
p2686
I2
sS'exploit'
p2687
I6
sS'bratt'
p2688
I1
sS'damag'
p2689
I3
sS'claric'
p2690
I1
sS'jerki'
p2691
I4
sS'carey'
p2692
I7
sS'emphas'
p2693
I1
sS'juliett'
p2694
I1
sS'textbook'
p2695
I1
sS'betcha'
p2696
I2
sS'bout'
p2697
I2
sS'countless'
p2698
I3
sS'gilbreth'
p2699
I1
sS'these'
p2700
I74
sS'might'
p2701
I30
sS'stereotyp'
p2702
I12
sS'trick'
p2703
I3
sS'scum'
p2704
I1
sS'possibly-imbr'
p2705
I1
sS'coolest'
p2706
I3
sS'susi'
p2707
I1
sS'henc'
p2708
I2
sS'worri'
p2709
I1
sS'bias'
p2710
I2
sS'eras'
p2711
I1
sS'beaver'
p2712
I2
sS'subscrib'
p2713
I1
sS'develop'
p2714
I27
sS'etc'
p2715
I21
sS'media'
p2716
I4
sS'neverend'
p2717
I1
sS'litl'
p2718
I1
sS'poetic'
p2719
I1
sS'white--wer'
p2720
I1
sS'document'
p2721
I1
sS'extravaganza'
p2722
I1
sS'finish'
p2723
I10
sS'sleazest'
p2724
I1
sS'someon'
p2725
I50
sS'fruit'
p2726
I2
sS'theater'
p2727
I46
sS'daytona'
p2728
I1
sS'charger'
p2729
I1
sS'bettani'
p2730
I1
sS'demean'
p2731
I3
sS'congressmen'
p2732
I1
sS'christophor'
p2733
I1
sS'disassoci'
p2734
I1
sS'taxi'
p2735
I2
sS'venu'
p2736
I1
sS'armour'
p2737
I1
sS'tobe'
p2738
I1
sS'touch'
p2739
I6
sS'speed'
p2740
I4
sS'geo-scienc'
p2741
I1
sS'europ'
p2742
I1
sS'senseless'
p2743
I10
sS'treatment'
p2744
I4
sS'versa'
p2745
I1
sS'bordom'
p2746
I1
sS'earli'
p2747
I10
sS'hover'
p2748
I1
sS'spectacular'
p2749
I6
sS'onscreen'
p2750
I1
sS'read'
p2751
I61
sS'amc'
p2752
I1
sS'ladi'
p2753
I9
sS'gonna'
p2754
I14
sS'ditz'
p2755
I1
sS'earnest'
p2756
I1
sS'certaint'
p2757
I2
sS'vulgur'
p2758
I1
sS'stunt'
p2759
I4
sS'apathet'
p2760
I1
sS'scatalog'
p2761
I1
sS'postcard'
p2762
I1
sS'fauker'
p2763
I1
sS't'
p2764
I953
sS'downward'
p2765
I1
sS'laugh'
p2766
I89
sS'pleeez'
p2767
I1
sS'ewww'
p2768
I1
sS'squirm'
p2769
I2
sS'manhatten'
p2770
I3
sS'inconist'
p2771
I1
sS'holywood'
p2772
I1
sS'sarandon'
p2773
I1
sS'novocain'
p2774
I1
sS'sadden'
p2775
I1
sS'sixti'
p2776
I1
sS'sixth'
p2777
I3
sS'starship'
p2778
I2
sS'vilain'
p2779
I1
sS'sadder'
p2780
I1
sS'throw'
p2781
I15
sS'comparison'
p2782
I5
sS'patent'
p2783
I2
sS'snob-i'
p2784
I1
sS'chop'
p2785
I2
sS'degre'
p2786
I4
sS'journey'
p2787
I1
sS'wolf'
p2788
I2
sS'chou'
p2789
I1
sS'chow'
p2790
I1
sS'palma'
p2791
I1
sS'badbadbadbadbad'
p2792
I1
sS'assassin'
p2793
I1
sS'elementari'
p2794
I1
sS'youd'
p2795
I1
sS'unsuccful'
p2796
I1
sS'nurs'
p2797
I8
sS'your'
p2798
I162
sS'stare'
p2799
I7
sS'log'
p2800
I1
sS'area'
p2801
I1
sS'aren'
p2802
I13
sS'starl'
p2803
I1
sS'lol'
p2804
I6
sS'start'
p2805
I58
sS'fascin'
p2806
I2
sS'low'
p2807
I28
sS'lot'
p2808
I57
sS'premis'
p2809
I16
sS'seagal'
p2810
I1
sS'recoil'
p2811
I1
sS'freddi'
p2812
I16
sS'atavist'
p2813
I1
sS'hire'
p2814
I6
sS'fraud'
p2815
I2
sS'furthermor'
p2816
I2
sS'minni'
p2817
I1
sS'bucket'
p2818
I1
sS'one-star'
p2819
I2
sS'mutin'
p2820
I1
sS'nerv'
p2821
I2
sS'salem'
p2822
I1
sS'cinematographi'
p2823
I10
sS'pokemon4ev'
p2824
I1
sS'beyond'
p2825
I32
sS'valid'
p2826
I1
sS'kubric'
p2827
I1
sS'you'
p2828
I684
sS'3-d'
p2829
I1
sS'poor'
p2830
I63
sS'poop'
p2831
I9
sS'60s'
p2832
I3
sS'unadulter'
p2833
I1
sS'drift'
p2834
I2
sS'overreact'
p2835
I1
sS'peak'
p2836
I1
sS'polak'
p2837
I1
sS'pooh'
p2838
I1
sS'peac'
p2839
I5
sS'pool'
p2840
I3
sS'left-w'
p2841
I1
sS'reduc'
p2842
I1
sS'philosoph'
p2843
I1
sS'inevit'
p2844
I1
sS'carlin'
p2845
I1
sS'vineg'
p2846
I1
sS'teeny-bopp'
p2847
I1
sS'messi'
p2848
I1
sS'monti'
p2849
I3
sS'month'
p2850
I3
sS'cameron'
p2851
I9
sS'habla'
p2852
I1
sS'corps'
p2853
I4
sS'gymnast'
p2854
I1
sS'embarras'
p2855
I4
sS'inaud'
p2856
I1
sS'articl'
p2857
I2
sS'foster'
p2858
I4
sS'comerci'
p2859
I1
sS'fountain'
p2860
I2
sS'vers'
p2861
I1
sS'masquerad'
p2862
I1
sS'horror'
p2863
I101
sS'mph'
p2864
I2
sS'vera'
p2865
I1
sS'mechan'
p2866
I1
sS'mps'
p2867
I1
sS'veri'
p2868
I212
sS'binoch'
p2869
I1
sS'segway'
p2870
I1
sS'laura'
p2871
I1
sS'heaven'
p2872
I1
sS'louis'
p2873
I1
sS'crummiest'
p2874
I1
sS'anal'
p2875
I1
sS'louie'
p2876
I1
sS'ass'
p2877
I22
sS'narrat'
p2878
I4
sS'mill'
p2879
I2
sS'primer'
p2880
I1
sS'stalin'
p2881
I1
sS'jedi'
p2882
I1
sS'consecut'
p2883
I1
sS'essenc'
p2884
I3
sS'cannib'
p2885
I2
sS'pacif'
p2886
I1
sS'snuggl'
p2887
I1
sS'theatric'
p2888
I1
sS'vet'
p2889
I3
sS'red-brown'
p2890
I1
sS'excess'
p2891
I3
sS'prologu'
p2892
I1
sS'iraq'
p2893
I3
sS'b5644om'
p2894
I1
sS'whini'
p2895
I1
sS'rork'
p2896
I1
sS'ahead'
p2897
I4
sS'defic'
p2898
I1
sS'whine'
p2899
I3
sS'forefath'
p2900
I1
sS'whing'
p2901
I1
sS'soldier'
p2902
I10
sS'amount'
p2903
I8
sS'creepi'
p2904
I10
sS'trainer'
p2905
I1
sS'drippi'
p2906
I1
sS'put'
p2907
I64
sS'slavish'
p2908
I1
sS'fail-saf'
p2909
I1
sS'famili'
p2910
I20
sS'story-'
p2911
I1
sS'globet'
p2912
I1
sS'hardlli'
p2913
I1
sS'khan'
p2914
I1
sS'helper'
p2915
I1
sS'0'
p2916
I14
sS'heroic'
p2917
I5
sS'nauseat'
p2918
I5
sS'yummi'
p2919
I1
sS'basi'
p2920
I1
sS'stand-up'
p2921
I1
sS'pixar'
p2922
I1
sS'chestnut'
p2923
I1
sS'yuck'
p2924
I8
sS'self-exploit'
p2925
I1
sS'tumbl'
p2926
I1
sS'hurri'
p2927
I1
sS'portman'
p2928
I2
sS'broke'
p2929
I1
sS'cannibalist'
p2930
I1
sS'mish-mash'
p2931
I1
sS'lloydd'
p2932
I1
sS'citizen'
p2933
I1
sS'daisi'
p2934
I2
sS'histori'
p2935
I37
sS'soderburgh'
p2936
I1
sS'nine'
p2937
I4
sS'yemen'
p2938
I2
sS're-tel'
p2939
I1
sS'againest'
p2940
I1
sS'gardener"'
p2941
I1
sS'18th-'
p2942
I1
sS'boycott'
p2943
I2
sS'teenage-wannab'
p2944
I1
sS'over-compens'
p2945
I1
sS'string'
p2946
I2
sS'bowmp-ba-bowmp'
p2947
I1
sS'anoth'
p2948
I99
sS'sigourney'
p2949
I2
sS'reject'
p2950
I1
sS'b-rat'
p2951
I2
sS'businessmen'
p2952
I2
sS'idioci'
p2953
I1
sS'fr'
p2954
I1
sS'threat'
p2955
I2
sS'rude'
p2956
I2
sS'fx'
p2957
I8
sS'sneak'
p2958
I2
sS'hubbard'
p2959
I1
sS'fi'
p2960
I3
sS'nothinig'
p2961
I1
sS'a'
p2962
I2597
sS'sodomi'
p2963
I1
sS'humbug'
p2964
I1
sS'undergo'
p2965
I1
sS'skywalk'
p2966
I1
sS'genuflect'
p2967
I1
sS'ego'
p2968
I3
sS'dread'
p2969
I17
sS'hobbit'
p2970
I3
sS'egg'
p2971
I1
sS'bug-ey'
p2972
I1
sS'help'
p2973
I22
sS'hels'
p2974
I5
sS'sooo'
p2975
I4
sS'soon'
p2976
I5
sS'held'
p2977
I5
sS'art-hous'
p2978
I1
sS'hell'
p2979
I50
sS'obscen'
p2980
I2
sS'rated-r'
p2981
I1
sS'dino'
p2982
I1
sS'brittney'
p2983
I1
sS'astonish'
p2984
I1
sS'fool'
p2985
I19
sS'yo'
p2986
I2
sS'food'
p2987
I13
sS'sentenc'
p2988
I4
sS'vomit'
p2989
I14
sS'foot'
p2990
I3
sS'studi'
p2991
I1
sS'well-known'
p2992
I1
sS'fairi'
p2993
I1
sS'radiat'
p2994
I1
sS'fulli'
p2995
I4
sS'intervent'
p2996
I1
sS'trailer'
p2997
I17
sS'ooooohhhhh'
p2998
I1
sS'democrat'
p2999
I3
sS'heavi'
p3000
I3
sS'mockumentari'
p3001
I1
sS'event'
p3002
I15
sS'wacki'
p3003
I1
sS'safeti'
p3004
I1
sS'robert'
p3005
I22
sS'publish'
p3006
I1
sS'half-way'
p3007
I2
sS'sustain'
p3008
I1
sS'7'
p3009
I12
sS're-enforc'
p3010
I1
sS'pun'
p3011
I3
sS'columbin'
p3012
I3
sS'post-walt'
p3013
I1
sS'dung'
p3014
I1
sS'reason'
p3015
I47
sS'base'
p3016
I39
sS'dire'
p3017
I2
sS'ask'
p3018
I22
sS'bash'
p3019
I1
sS'revigor'
p3020
I1
sS'launch'
p3021
I1
sS'unorign'
p3022
I2
sS'dy-no-mit'
p3023
I1
sS'revolutionari'
p3024
I1
sS'american'
p3025
I56
sS'kung'
p3026
I1
sS'heartbeat'
p3027
I1
sS'lifetim'
p3028
I1
sS'singleton'
p3029
I1
sS'screetch'
p3030
I1
sS'promedio'
p3031
I1
sS'crapi'
p3032
I2
sS'elder'
p3033
I1
sS'river'
p3034
I1
sS'uninterest'
p3035
I11
sS'miss'
p3036
I26
sS'big-tim'
p3037
I1
sS'rahhhh'
p3038
I1
sS'eddi'
p3039
I4
sS'fraggl'
p3040
I1
sS'station'
p3041
I5
sS'adher'
p3042
I1
sS'underdevelop'
p3043
I1
sS'bowel'
p3044
I2
sS'jordan'
p3045
I1
sS'boredom'
p3046
I3
sS're-writ'
p3047
I1
sS'anti-technolog'
p3048
I2
sS'grey'
p3049
I2
sS'purposeless'
p3050
I1
sS'scandinavian'
p3051
I1
sS'bride'
p3052
I3
sS'groceri'
p3053
I1
sS'greg'
p3054
I1
sS'hauer'
p3055
I1
sS'consumpt'
p3056
I1
sS'toward'
p3057
I13
sS'dtv'
p3058
I1
sS'phobia'
p3059
I1
sS'wasnt'
p3060
I7
sS'well-written'
p3061
I1
sS'steak'
p3062
I2
sS'juici'
p3063
I1
sS'sensual'
p3064
I1
sS'lie'
p3065
I17
sS'jour'
p3066
I1
sS'lil'
p3067
I1
sS'cave'
p3068
I1
sS'unintent'
p3069
I4
sS'lip'
p3070
I1
sS'useless'
p3071
I13
sS'liz'
p3072
I1
sS'mixtur'
p3073
I1
sS'eaten'
p3074
I3
sS'watt'
p3075
I1
sS'suitcas'
p3076
I1
sS'kay'
p3077
I1
sS'warranti'
p3078
I1
sS'wats'
p3079
I1
sS'clear'
p3080
I11
sS'salari'
p3081
I2
sS'clean'
p3082
I7
sS'latest'
p3083
I5
sS'awesom'
p3084
I10
sS'ozbourn'
p3085
I1
sS'phenomenon'
p3086
I3
sS'6-year'
p3087
I1
sS'netherworld'
p3088
I1
sS'carier'
p3089
I1
sS'top-notch'
p3090
I1
sS'cinamat'
p3091
I1
sS'kinsey'
p3092
I2
sS'randi'
p3093
I5
sS'pretti'
p3094
I59
sS'paranoid'
p3095
I1
sS'less'
p3096
I29
sS'you-know-who'
p3097
I1
sS'computer-gener'
p3098
I1
sS'central'
p3099
I1
sS'hogwart'
p3100
I1
sS'palett'
p3101
I1
sS'strut'
p3102
I1
sS'nativ'
p3103
I3
sS'basement'
p3104
I3
sS'fluff'
p3105
I3
sS'nnnooooo'
p3106
I1
sS'beatlemania'
p3107
I1
sS'aboman'
p3108
I1
sS'hype'
p3109
I24
sS'x'
p3110
I5
sS'ixnay'
p3111
I1
sS'cramp'
p3112
I1
sS'schwimmer'
p3113
I1
sS'delus'
p3114
I1
sS'mcgowan'
p3115
I1
sS'dakota'
p3116
I1
sS'afor'
p3117
I1
sS'close'
p3118
I15
sS'whatsoev'
p3119
I16
sS'cheapshot'
p3120
I1
sS'horrif'
p3121
I4
sS'horrid'
p3122
I19
sS'wou'
p3123
I1
sS'wow'
p3124
I18
sS'grandmoth'
p3125
I1
sS'particip'
p3126
I2
sS'woo'
p3127
I4
sS'won'
p3128
I27
sS'entwin'
p3129
I1
sS'woe'
p3130
I1
sS'piss'
p3131
I5
sS'oversimplifi'
p3132
I1
sS'blacula'
p3133
I1
sS'numer'
p3134
I2
sS'wrasslin'
p3135
I1
sS'isol'
p3136
I1
sS'spray'
p3137
I1
sS'litter'
p3138
I1
sS'distinguish'
p3139
I1
sS'okinawa'
p3140
I1
sS'both'
p3141
I32
sS'infami'
p3142
I1
sS'anoy'
p3143
I1
sS'keaton'
p3144
I1
sS'forgotten'
p3145
I5
sS'vault'
p3146
I1
sS'jeff'
p3147
I6
sS'puritan'
p3148
I1
sS'storyline-'
p3149
I1
sS'batteri'
p3150
I1
sS'bridg'
p3151
I6
sS'coincid'
p3152
I1
sS'forgiv'
p3153
I6
sS'jsut'
p3154
I1
sS'mutini'
p3155
I1
sS'celluloid'
p3156
I5
sS'territori'
p3157
I1
sS'empti'
p3158
I13
sS'newcom'
p3159
I1
sS'damn'
p3160
I20
sS'threaten'
p3161
I3
sS'napl'
p3162
I1
sS'dame'
p3163
I1
sS'anthoni'
p3164
I4
sS'invis'
p3165
I6
sS'liven'
p3166
I1
sS'imag'
p3167
I6
sS'crack'
p3168
I5
sS'imax'
p3169
I2
sS'loon'
p3170
I1
sS'overplay'
p3171
I1
sS'look'
p3172
I152
sS'gale'
p3173
I1
sS'invit'
p3174
I3
sS'pace'
p3175
I10
sS'bikini'
p3176
I2
sS'jkook'
p3177
I1
sS'match'
p3178
I1
sS'loos'
p3179
I5
sS'loop'
p3180
I1
sS'pack'
p3181
I3
sS'asund'
p3182
I1
sS'readi'
p3183
I7
sS'roll-your-ey'
p3184
I1
sS'shat'
p3185
I1
sS'grant'
p3186
I5
sS'belong'
p3187
I7
sS'masscr'
p3188
I1
sS'desdemona'
p3189
I1
sS's-new-cloth'
p3190
I1
sS'karl'
p3191
I1
sS'grand'
p3192
I1
sS'teen-styl'
p3193
I1
sS'conflict'
p3194
I1
sS'sham'
p3195
I2
sS'dime'
p3196
I1
sS'optim'
p3197
I6
sS'banter'
p3198
I1
sS'blair'
p3199
I19
sS'overweight'
p3200
I1
sS'wilson'
p3201
I2
sS'inflat'
p3202
I2
sS'000'
p3203
I5
sS'priceless'
p3204
I1
sS'older'
p3205
I6
sS'grossli'
p3206
I4
sS'grind'
p3207
I2
sS'cruxifict'
p3208
I1
sS'posh'
p3209
I1
sS'vioent'
p3210
I1
sS'butthol'
p3211
I1
sS'chore'
p3212
I1
sS'marque'
p3213
I1
sS'rambo'
p3214
I2
sS'disel'
p3215
I2
sS'1800s'
p3216
I1
sS'soooooo'
p3217
I2
sS'subsequ'
p3218
I2
sS'soliloquy'
p3219
I1
sS'march'
p3220
I1
sS'filmset'
p3221
I1
sS'innat'
p3222
I1
sS'game'
p3223
I25
sS'anarchist'
p3224
I1
sS'characterist'
p3225
I1
sS'innan'
p3226
I1
sS'like'
p3227
I497
sS'signal'
p3228
I1
sS'resolv'
p3229
I1
sS'manifest'
p3230
I1
sS'dreck'
p3231
I11
sS'puh-leas'
p3232
I1
sS'popular'
p3233
I14
sS'cruis'
p3234
I16
sS'sketch'
p3235
I1
sS'trendi'
p3236
I1
sS'some'
p3237
I187
sS'anti-american'
p3238
I1
sS'syndrom'
p3239
I1
sS'chocol'
p3240
I1
sS'debri'
p3241
I3
sS'overemot'
p3242
I1
sS'slash'
p3243
I1
sS'forgett'
p3244
I3
sS'slapstick'
p3245
I1
sS'cgi'
p3246
I8
sS'nelli'
p3247
I2
sS'run'
p3248
I39
sS'rub'
p3249
I2
sS'raspberri'
p3250
I1
sS'aerosmith'
p3251
I1
sS'step'
p3252
I7
sS'rut'
p3253
I1
sS'shine'
p3254
I4
sS'faith'
p3255
I5
sS'wouldnt'
p3256
I4
sS'shini'
p3257
I2
sS'sake'
p3258
I7
sS'congressman'
p3259
I1
sS'armand'
p3260
I1
sS'block'
p3261
I1
sS'kedward'
p3262
I2
sS'smelli'
p3263
I1
sS'visit'
p3264
I5
sS'70'
p3265
I5
sS'over-elabor'
p3266
I1
sS'absent-mind'
p3267
I1
sS'yicki'
p3268
I1
sS'triangl'
p3269
I5
sS'dismal'
p3270
I2
sS'zzzzz'
p3271
I1
sS'inacur'
p3272
I1
sS'tobey'
p3273
I1
sS'himself'
p3274
I22
sS'reev'
p3275
I5
sS'inept'
p3276
I2
sS'anti-fast'
p3277
I2
sS'russian'
p3278
I3
sS'amateurish'
p3279
I2
sS'reel'
p3280
I4
sS'dull'
p3281
I40
sS'skull'
p3282
I3
sS'grinch'
p3283
I1
sS'role-play'
p3284
I1
sS'similar'
p3285
I3
sS'bever'
p3286
I1
sS'willem'
p3287
I1
sS'flush'
p3288
I1
sS'doesn'
p3289
I55
sS'repres'
p3290
I5
sS'guarante'
p3291
I2
sS'cotton'
p3292
I2
sS'nag'
p3293
I1
sS'insomniac'
p3294
I1
sS'objection'
p3295
I5
sS'creeper'
p3296
I2
sS'eerili'
p3297
I1
sS'hoopla'
p3298
I1
sS'manhattan'
p3299
I5
sS'draw'
p3300
I1
sS'deplict'
p3301
I1
sS'william'
p3302
I5
sS'drag'
p3303
I27
sS'drab'
p3304
I1
sS'mamet'
p3305
I1
sS'supris'
p3306
I2
sS'overlong'
p3307
I1
sS'models--stand'
p3308
I1
sS'dvd'
p3309
I17
sS'depth'
p3310
I9
sS'bribe'
p3311
I1
sS'ceratosaur'
p3312
I1
sS'kati'
p3313
I3
sS'ritualist'
p3314
I1
sS'go'
p3315
I216
sS'psycho'
p3316
I6
sS'kate'
p3317
I5
sS'unessenti'
p3318
I1
sS'vacuous'
p3319
I1
sS'wizard'
p3320
I1
sS'shack'
p3321
I1
sS'airplan'
p3322
I4
sS'nichola'
p3323
I3
sS'wave'
p3324
I5
sS'stiff'
p3325
I6
sS'gender'
p3326
I1
sS'button'
p3327
I2
sS'michael'
p3328
I27
sS'stifl'
p3329
I1
sS'ryan'
p3330
I10
sS'verdict'
p3331
I1
sS'barbara'
p3332
I1
sS'dicktatorship'
p3333
I1
sS'uhhhh'
p3334
I1
sS'bleechhh'
p3335
I1
sS'nowwwwwww'
p3336
I1
sS'pornographi'
p3337
I2
sS'ze'
p3338
I2
sS'uniqu'
p3339
I3
sS'jump'
p3340
I17
sS'booti'
p3341
I1
sS'booth'
p3342
I1
sS'click'
p3343
I3
sS'clich'
p3344
I21
sS'poke'
p3345
I4
sS'colonel'
p3346
I1
sS'worthi'
p3347
I6
sS'bergman'
p3348
I1
sS'cell'
p3349
I2
sS'rotten'
p3350
I5
sS'charactor'
p3351
I3
sS'newton-john'
p3352
I1
sS'eminem'
p3353
I2
sS'hasbeen'
p3354
I1
sS'becom'
p3355
I13
sS'convers'
p3356
I2
sS'reenfirc'
p3357
I1
sS'repet'
p3358
I1
sS'vacat'
p3359
I3
sS'chang'
p3360
I12
sS'gene'
p3361
I8
sS'chanc'
p3362
I7
sS'danger'
p3363
I4
sS'win'
p3364
I11
sS'wit'
p3365
I16
sS'infest'
p3366
I1
sS'gimmick'
p3367
I1
sS'well-don'
p3368
I2
sS'cloud'
p3369
I1
sS'carzi'
p3370
I1
sS'crap'
p3371
I131
sS'snoop'
p3372
I6
sS'hudson'
p3373
I5
sS'snooz'
p3374
I1
sS'implic'
p3375
I2
sS'camera'
p3376
I26
sS'conneri'
p3377
I2
sS'jonathan'
p3378
I2
sS'remaind'
p3379
I1
sS'prostitute-worn'
p3380
I1
sS'villechev'
p3381
I1
sS'salad'
p3382
I2
sS'chianti'
p3383
I1
sS'ride'
p3384
I6
sS'lawer'
p3385
I2
sS'zaillian'
p3386
I1
sS'meet'
p3387
I14
sS'vaunt'
p3388
I1
sS'control'
p3389
I13
sS'halloween'
p3390
I22
sS'displeasur'
p3391
I1
sS'georg'
p3392
I15
sS'stockard'
p3393
I1
sS'nari'
p3394
I1
sS'ugghhhh'
p3395
I1
sS'overst'
p3396
I1
sS'fare'
p3397
I5
sS'prolif'
p3398
I1
sS'farc'
p3399
I3
sS'farm'
p3400
I1
sS'outdid'
p3401
I1
sS'iren'
p3402
I1
sS'fart'
p3403
I1
sS'booooor'
p3404
I2
sS'sonor'
p3405
I1
sS'masturb'
p3406
I5
sS'unnessacari'
p3407
I1
sS'famous'
p3408
I5
sS'agenda'
p3409
I1
sS'cattl'
p3410
I1
sS'longest'
p3411
I2
sS'ummmmm'
p3412
I1
sS'sperm'
p3413
I1
sS'unbor'
p3414
I1
sS'gunman'
p3415
I1
sS'blake'
p3416
I1
sS'outer'
p3417
I6
sS'affleck'
p3418
I9
sS'guerrilla'
p3419
I1
sS'emotionless'
p3420
I1
sS'pure'
p3421
I26
sS'handl'
p3422
I2
sS'tribut'
p3423
I1
sS'gwyneth'
p3424
I3
sS'zellweg'
p3425
I1
sS'dudett'
p3426
I1
sS'nihil'
p3427
I1
sS'front'
p3428
I5
sS'hannib'
p3429
I7
sS'somewher'
p3430
I7
sS'slide'
p3431
I2
sS'mode'
p3432
I4
sS'hunder'
p3433
I1
sS'bekong'
p3434
I1
sS'upward'
p3435
I1
sS'wrose'
p3436
I1
sS'chunk'
p3437
I1
sS'700'
p3438
I1
sS'flop-sweat'
p3439
I1
sS'special'
p3440
I52
sS'1999-film'
p3441
I1
sS'foulist'
p3442
I1
sS'influenc'
p3443
I1
sS'confess'
p3444
I1
sS'mottola'
p3445
I1
sS'wich'
p3446
I1
sS'wick'
p3447
I2
sS'obsess'
p3448
I2
sS'achiv'
p3449
I1
sS'cemistri'
p3450
I1
sS'filthi'
p3451
I1
sS'manipul'
p3452
I8
sS'70s'
p3453
I4
sS'trashi'
p3454
I4
sS'witht'
p3455
I1
sS'princess'
p3456
I2
sS'shrew'
p3457
I2
sS'etern'
p3458
I4
sS'unwant'
p3459
I1
sS'keep'
p3460
I36
sS'slow-pac'
p3461
I1
sS'shred'
p3462
I1
sS'austin'
p3463
I9
sS'mankind'
p3464
I5
sS'airborn'
p3465
I1
sS'christoph'
p3466
I7
sS'qualiti'
p3467
I18
sS'seventeen'
p3468
I2
sS'bitch'
p3469
I4
sS'such'
p3470
I94
sS'hehe'
p3471
I1
sS'britani'
p3472
I1
sS'dove'
p3473
I1
sS'attack'
p3474
I9
sS'noooooo'
p3475
I1
sS'final'
p3476
I30
sS'2-3'
p3477
I1
sS'punish'
p3478
I6
sS'blechhhh'
p3479
I1
sS'herself'
p3480
I8
sS'apologist'
p3481
I1
sS'waist'
p3482
I9
sS'stupend'
p3483
I1
sS'lamborghini'
p3484
I1
sS'ben'
p3485
I19
sS'bloat'
p3486
I2
sS'beg'
p3487
I1
sS'bed'
p3488
I5
sS'bee'
p3489
I5
sS'cartoonish'
p3490
I1
sS'ber'
p3491
I1
sS'dumb'
p3492
I48
sS'yawner'
p3493
I1
sS'comite'
p3494
I1
sS'acadami'
p3495
I1
sS'bet'
p3496
I4
sS'exhibit'
p3497
I1
sS'robocop'
p3498
I1
sS'bordem'
p3499
I1
sS'all-too-typ'
p3500
I1
sS'torment'
p3501
I1
sS'tabl'
p3502
I3
sS'need'
p3503
I82
sS'border'
p3504
I2
sS'tale'
p3505
I11
sS'bastard'
p3506
I4
sS'unawar'
p3507
I1
sS'tactic'
p3508
I1
sS'bus'
p3509
I10
sS'truck'
p3510
I2
sS'kemaya'
p3511
I1
sS'singl'
p3512
I14
sS'happi'
p3513
I17
sS'textur'
p3514
I1
sS'dissappoint'
p3515
I1
sS'moments"'
p3516
I1
sS'deplor'
p3517
I3
sS'discov'
p3518
I5
sS'awe'
p3519
I4
sS'stereo'
p3520
I2
sS'urg'
p3521
I3
sS'eject'
p3522
I2
sS'upset'
p3523
I2
sS'inde'
p3524
I3
sS'skunk'
p3525
I1
sS'indi'
p3526
I1
sS'affair'
p3527
I3
sS'tolkien'
p3528
I1
sS'dojo'
p3529
I1
sS'tire'
p3530
I18
sS'hadn'
p3531
I2
sS'winner'
p3532
I3
sS'forev'
p3533
I8
sS'hector'
p3534
I3
sS'envi'
p3535
I1
sS'fuel'
p3536
I1
sS'various'
p3537
I4
sS'atual'
p3538
I1
sS'discontinu'
p3539
I1
sS'michigan'
p3540
I1
sS'dodgi'
p3541
I1
sS'120'
p3542
I1
sS'joint'
p3543
I1
sS'kiefer'
p3544
I1
sS'tbn'
p3545
I1
sS'tearjerk'
p3546
I1
sS'endless'
p3547
I3
sS'uncontest'
p3548
I1
sS'tobacco'
p3549
I1
sS'she'
p3550
I152
sS'contain'
p3551
I8
sS'shi'
p3552
I4
sS'grab'
p3553
I5
sS'preach'
p3554
I2
sS'legaci'
p3555
I2
sS'pitch'
p3556
I2
sS'grammer'
p3557
I1
sS'dalla'
p3558
I1
sS'powder'
p3559
I1
sS'statu'
p3560
I2
sS'writter'
p3561
I2
sS'tend'
p3562
I6
sS'state'
p3563
I17
sS'lug'
p3564
I1
sS'tens'
p3565
I1
sS'neither'
p3566
I9
sS'doo-dad'
p3567
I1
sS'tent'
p3568
I3
sS'bleed'
p3569
I1
sS'ked'
p3570
I1
sS'saggin'
p3571
I1
sS'foreshadow'
p3572
I1
sS'gilmor'
p3573
I3
sS'key'
p3574
I2
sS'precious'
p3575
I2
sS'thank'
p3576
I32
sS'career'
p3577
I25
sS'actre'
p3578
I1
sS'admit'
p3579
I12
sS'congrat'
p3580
I1
sS'admir'
p3581
I2
sS'jersey'
p3582
I1
sS'e'
p3583
I5
sS'gasp'
p3584
I1
sS'torn'
p3585
I1
sS'craptast'
p3586
I1
sS'quit'
p3587
I33
sS'slowli'
p3588
I1
sS'domanatrix'
p3589
I1
sS'reptil'
p3590
I2
sS'cent'
p3591
I3
sS'willi'
p3592
I9
sS'treat'
p3593
I9
sS'eraser'
p3594
I1
sS'poet'
p3595
I1
sS'asinin'
p3596
I2
sS'star-stud'
p3597
I1
sS'sart'
p3598
I1
sS'circus'
p3599
I1
sS'plausibl'
p3600
I1
sS'shameless'
p3601
I4
sS'renegad'
p3602
I1
sS'replic'
p3603
I2
sS'novel'
p3604
I11
sS'televison'
p3605
I1
sS'harder'
p3606
I3
sS'leathal'
p3607
I1
sS'whoopdi'
p3608
I1
sS'engag'
p3609
I5
sS'demo'
p3610
I1
sS'demm'
p3611
I1
sS'reviv'
p3612
I2
sS'over-when'
p3613
I1
sS'welcom'
p3614
I3
sS'parti'
p3615
I10
sS'began'
p3616
I5
sS'roman'
p3617
I11
sS'folklor'
p3618
I1
sS'rubish'
p3619
I1
sS'colostomi'
p3620
I1
sS'fido'
p3621
I1
sS'strangl'
p3622
I4
sS'fubar'
p3623
I1
sS'http'
p3624
I2
sS'buzz'
p3625
I2
sS'effect'
p3626
I73
sS'cartoon-lik'
p3627
I1
sS'sooner'
p3628
I3
sS'feelin'
p3629
I2
sS'frikin'
p3630
I1
sS'ashley'
p3631
I2
sS'surfboard'
p3632
I1
sS'lunch'
p3633
I1
sS'i'
p3634
I2657
sS'well'
p3635
I97
sS'grenad'
p3636
I1
sS'taller'
p3637
I1
sS'mistaken'
p3638
I3
sS'dose'
p3639
I1
sS'unattract'
p3640
I2
sS'distant'
p3641
I1
sS'40'
p3642
I4
sS'skill'
p3643
I11
sS'lauren'
p3644
I1
sS'distress'
p3645
I1
sS'snicker'
p3646
I2
sS'patricia'
p3647
I2
sS'crocodil'
p3648
I1
sS'ought'
p3649
I2
sS'warrant'
p3650
I1
sS'kick'
p3651
I18
sS'sonic'
p3652
I1
sS'fate'
p3653
I3
sS'utah'
p3654
I1
sS'theolog'
p3655
I1
sS'unseem'
p3656
I1
sS'unseen'
p3657
I2
sS'goodguy'
p3658
I1
sS'loss'
p3659
I1
sS'sissi'
p3660
I1
sS'lost'
p3661
I32
sS'saget'
p3662
I1
sS'clown'
p3663
I5
sS'non-actor'
p3664
I1
sS'roth'
p3665
I1
sS're-mad'
p3666
I2
sS'lose'
p3667
I13
sS're-mak'
p3668
I2
sS'page'
p3669
I5
sS'candi'
p3670
I5
sS'terren'
p3671
I1
sS'revers'
p3672
I2
sS'glare'
p3673
I2
sS'donnot'
p3674
I1
sS'shes'
p3675
I1
sS'home'
p3676
I20
sS'jlo'
p3677
I1
sS'peter'
p3678
I12
sS'librari'
p3679
I1
sS'wendi'
p3680
I1
sS'allegori'
p3681
I1
sS'tie-di'
p3682
I1
sS'broad'
p3683
I1
sS'bullsh'
p3684
I1
sS'e-mail'
p3685
I1
sS'duh'
p3686
I2
sS'encourag'
p3687
I1
sS'whippdey'
p3688
I1
sS'ridley'
p3689
I3
sS'poignant'
p3690
I1
sS'swayz'
p3691
I1
sS'bodybuild'
p3692
I1
sS'quarter'
p3693
I1
sS'freedom'
p3694
I5
sS'stamp'
p3695
I2
sS'unbreak'
p3696
I1
sS'blockbust'
p3697
I9
sS'glenn'
p3698
I1
sS'tortur'
p3699
I17
sS'washington'
p3700
I1
sS'disat'
p3701
I1
sS'primat'
p3702
I1
sS'j-lo'
p3703
I3
sS'couldnt'
p3704
I2
sS'pointless'
p3705
I37
sS'doubtless'
p3706
I2
sS'prozac'
p3707
I1
sS'now-a-day'
p3708
I1
sS'museum'
p3709
I1
sS'wimp'
p3710
I1
sS'scivvi'
p3711
I1
sS'inner'
p3712
I1
sS'north'
p3713
I3
sS'dern'
p3714
I1
sS'goali'
p3715
I1
sS'hi'
p3716
I1
sS'gain'
p3717
I2
sS'whistl'
p3718
I1
sS'overflow'
p3719
I2
sS'ear'
p3720
I8
sS'nicol'
p3721
I8
sS'he'
p3722
I332
sS'puh-leez'
p3723
I1
sS'cruel'
p3724
I5
sS'limit'
p3725
I6
sS'showgirl'
p3726
I2
sS'dmx'
p3727
I2
sS'evalu'
p3728
I1
sS'duchovney'
p3729
I1
sS'beatl'
p3730
I6
sS'erin'
p3731
I1
sS'conan'
p3732
I2
sS'rule'
p3733
I8
sS'mauri'
p3734
I2
sS'penni'
p3735
I1
sS'eric'
p3736
I2
sS'crummi'
p3737
I1
sS'contest'
p3738
I5
sS'futur'
p3739
I8
sS'rememb'
p3740
I31
sS'talkin'
p3741
I1
sS'characterwho'
p3742
I1
sS'star'
p3743
I135
sS'pleassureful'
p3744
I1
sS'stay'
p3745
I27
sS'foil'
p3746
I1
sS'stab'
p3747
I3
sS'nintendo'
p3748
I1
sS'appoint'
p3749
I2
sS'spectacl'
p3750
I3
sS'massacr'
p3751
I5
sS'atheist'
p3752
I1
sS'martin'
p3753
I15
sS'portion'
p3754
I4
sS'15-20'
p3755
I1
sS'simpson'
p3756
I5
sS'pardon'
p3757
I1
sS'aiden'
p3758
I3
sS'whoopi'
p3759
I2
sS'protest'
p3760
I1
sS'asian'
p3761
I4
sS'captain'
p3762
I4
sS'schmuck'
p3763
I1
sS'whose'
p3764
I12
sS'accus'
p3765
I1
sS'accur'
p3766
I5
sS'sorri'
p3767
I55
sS'buddi'
p3768
I6
sS'kidman'
p3769
I12
sS'aux'
p3770
I1
sS'kudo'
p3771
I2
sS'appal'
p3772
I4
sS'void'
p3773
I5
sS'voic'
p3774
I12
sS'smack'
p3775
I3
sS'govern'
p3776
I4
sS'cemetari'
p3777
I1
sS'affect'
p3778
I3
sS'low-budget'
p3779
I5
sS'low-key'
p3780
I2
sS'vast'
p3781
I2
sS'naturalist'
p3782
I1
sS'samara'
p3783
I2
sS'mansion'
p3784
I1
sS'kidnap'
p3785
I3
sS'quill'
p3786
I2
sS'even'
p3787
I345
sS'neo'
p3788
I4
sS'nej'
p3789
I3
sS'wreck'
p3790
I4
sS'panama'
p3791
I3
sS'asid'
p3792
I13
sS'while'
p3793
I62
sS'mocumentari'
p3794
I1
sS'new'
p3795
I54
sS'net'
p3796
I1
sS'ever'
p3797
I316
sS'meg'
p3798
I5
sS'abov'
p3799
I7
sS'intrest'
p3800
I1
sS'mel'
p3801
I15
sS'never'
p3802
I164
sS'drew'
p3803
I7
sS'met'
p3804
I1
sS'munson'
p3805
I1
sS'voter'
p3806
I1
sS'100'
p3807
I10
sS'cardboard'
p3808
I2
sS'interpret'
p3809
I1
sS'seduc'
p3810
I1
sS'goldi'
p3811
I2
sS'dorki'
p3812
I1
sS'dri'
p3813
I7
sS'jame'
p3814
I16
sS'omar'
p3815
I1
sS'permit'
p3816
I1
sS'california'
p3817
I1
sS'dre'
p3818
I1
sS'jami'
p3819
I1
sS'campaign'
p3820
I1
sS'semin'
p3821
I1
sS'gimm'
p3822
I2
sS'latifah'
p3823
I3
sS'moral'
p3824
I17
sS'historicali'
p3825
I1
sS'scientif'
p3826
I1
sS'ppl'
p3827
I1
sS'immit'
p3828
I2
sS'reguard'
p3829
I1
sS'lame-ass'
p3830
I1
sS'burkittsvill'
p3831
I1
sS'leaki'
p3832
I1
sS'movie-'
p3833
I1
sS'call'
p3834
I46
sS'calm'
p3835
I1
sS'typo'
p3836
I1
sS'armi'
p3837
I6
sS'type'
p3838
I25
sS'tell'
p3839
I63
sS'calf'
p3840
I1
sS'mekhi'
p3841
I1
sS'f---er'
p3842
I2
sS'oscar'
p3843
I20
sS'warp'
p3844
I3
sS'warn'
p3845
I14
sS'warm'
p3846
I4
sS'adult'
p3847
I14
sS'ward'
p3848
I1
sS'spurlock'
p3849
I3
sS'room'
p3850
I12
sS'candlestick'
p3851
I1
sS'unemot'
p3852
I1
sS'akin'
p3853
I1
sS'root'
p3854
I6
sS'give'
p3855
I113
sS'climax'
p3856
I3
sS'cursori'
p3857
I1
sS'pleeeeeeeeeas'
p3858
I1
sS'freshen'
p3859
I1
sS'quot'
p3860
I1
sS'polic'
p3861
I4
sS'stroy'
p3862
I2
sS'answer'
p3863
I1
sS'polit'
p3864
I19
sS'mean-natur'
p3865
I1
sS'vicious'
p3866
I3
sS'lesbian'
p3867
I3
sS'attempt'
p3868
I41
sS'third'
p3869
I5
sS'minim'
p3870
I1
sS'confeder'
p3871
I2
sS'wus'
p3872
I1
sS'banger'
p3873
I1
sS'fetus'
p3874
I1
sS'deck'
p3875
I3
sS'wuz'
p3876
I3
sS'gettysburg'
p3877
I2
sS'murray'
p3878
I5
sS'mumbl'
p3879
I1
sS'oswald'
p3880
I2
sS'gentl'
p3881
I1
sS'bigalow'
p3882
I1
sS'furlong'
p3883
I1
sS'improvis'
p3884
I1
sS'superheor'
p3885
I1
sS'crew'
p3886
I4
sS'better'
p3887
I131
sS'persist'
p3888
I1
sS'schmidt'
p3889
I1
sS'within"'
p3890
I1
sS'anim'
p3891
I31
sS'therapi'
p3892
I1
sS'promin'
p3893
I2
sS'promis'
p3894
I6
sS'aaaarghhhh'
p3895
I1
sS'downright'
p3896
I6
sS'frequently-us'
p3897
I1
sS'meat'
p3898
I2
sS'sleepless'
p3899
I1
sS'bonk'
p3900
I1
sS'luca'
p3901
I9
sS'went'
p3902
I59
sS'oblig'
p3903
I1
sS'side'
p3904
I16
sS'bone'
p3905
I6
sS'mean'
p3906
I63
sS'klump'
p3907
I1
sS'awri'
p3908
I1
sS'navi'
p3909
I2
sS'enorm'
p3910
I2
sS'b-grade'
p3911
I2
sS'taught'
p3912
I2
sS'forgot'
p3913
I4
sS'dawn'
p3914
I4
sS'incomprehens'
p3915
I2
sS'contend'
p3916
I1
sS'waaaaaa'
p3917
I1
sS'content'
p3918
I12
sS'rewrit'
p3919
I1
sS'contens'
p3920
I1
sS'sluggish'
p3921
I1
sS'paen'
p3922
I1
sS'situat'
p3923
I5
sS'redempt'
p3924
I2
sS'hollyood'
p3925
I1
sS'jackman'
p3926
I1
sS'cutesi'
p3927
I1
sS'beatti'
p3928
I1
sS'sceen'
p3929
I1
sS'isn'
p3930
I69
sS'bankrol'
p3931
I2
sS'loud'
p3932
I8
sS'stewart'
p3933
I1
sS'storylin'
p3934
I38
sS'playwright'
p3935
I1
sS'twenty-two'
p3936
I1
sS'sucicid'
p3937
I1
sS'grade'
p3938
I9
sS'inflam'
p3939
I2
sS'hoot'
p3940
I1
sS'hook'
p3941
I3
sS'hooh'
p3942
I1
sS'abandan'
p3943
I1
sS'cher'
p3944
I2
sS'agre'
p3945
I29
sS'hood'
p3946
I1
sS'guiltier'
p3947
I1
sS'sometim'
p3948
I7
sS'starfleet'
p3949
I1
sS'brainwash'
p3950
I2
sS'hollywood'
p3951
I62
sS'enjot'
p3952
I1
sS'obnoxi'
p3953
I12
sS'actulli'
p3954
I1
sS'somewhat'
p3955
I11
sS'helen'
p3956
I7
sS'paint-by-numb'
p3957
I1
sS'trippl'
p3958
I1
sS'symptom'
p3959
I1
sS'charcter'
p3960
I1
sS'spoiler'
p3961
I4
sS'silli'
p3962
I25
sS'affront'
p3963
I1
sS'afterbirth'
p3964
I1
sS'exorcist'
p3965
I4
sS'cellphon'
p3966
I1
sS'windowdress'
p3967
I1
sS'matter'
p3968
I18
sS'prankster'
p3969
I1
sS'mini'
p3970
I1
sS'out-act'
p3971
I1
sS'seep'
p3972
I1
sS'modern'
p3973
I19
sS'mind'
p3974
I37
sS'mine'
p3975
I5
sS'synopt'
p3976
I1
sS'seen'
p3977
I214
sS'seem'
p3978
I99
sS'churn'
p3979
I4
sS'seek'
p3980
I6
sS'thornton'
p3981
I2
sS'kimba'
p3982
I1
sS'power-hungri'
p3983
I1
sS'tyo'
p3984
I1
sS'farenheight'
p3985
I1
sS'marin'
p3986
I1
sS'mario'
p3987
I3
sS'regular'
p3988
I3
sS'shamalyan'
p3989
I1
sS'tradit'
p3990
I2
sS'pinoccio'
p3991
I1
sS'don'
p3992
I227
sS'doo'
p3993
I4
sS'geesh'
p3994
I1
sS'alarm'
p3995
I1
sS'm'
p3996
I120
sS'dog'
p3997
I26
sS'doe'
p3998
I71
sS'digress'
p3999
I1
sS'hair-cut'
p4000
I1
sS'mushi'
p4001
I1
sS'ashor'
p4002
I1
sS'kruger'
p4003
I2
sS'assclown'
p4004
I1
sS'nevada'
p4005
I1
sS'despit'
p4006
I13
sS'acquir'
p4007
I1
sS'despis'
p4008
I1
sS'pledg'
p4009
I2
sS'explain'
p4010
I19
sS'sugar'
p4011
I3
sS'despic'
p4012
I1
sS'gangsta'
p4013
I3
sS'chalic'
p4014
I1
sS'patter'
p4015
I1
sS'stop'
p4016
I39
sS'coast'
p4017
I1
sS'orgi'
p4018
I1
sS'mean-sprit'
p4019
I1
sS'parachut'
p4020
I1
sS'apostl'
p4021
I1
sS'hammerstein'
p4022
I1
sS'bar'
p4023
I6
sS'sacrific'
p4024
I1
sS'disco'
p4025
I1
sS'bag'
p4026
I11
sS'bad'
p4027
I379
sS'liberti'
p4028
I2
sS'sinker'
p4029
I1
sS'ban'
p4030
I2
sS'crapfest'
p4031
I2
sS'vampir'
p4032
I7
sS'armageddon'
p4033
I2
sS'pryce'
p4034
I1
sS'subject'
p4035
I8
sS'pete'
p4036
I2
sS'00'
p4037
I3
sS'said'
p4038
I48
sS'half-wit'
p4039
I1
sS'duff'
p4040
I2
sS'scrap'
p4041
I1
sS'attribut'
p4042
I1
sS'warrior'
p4043
I2
sS'omg'
p4044
I4
sS'dumber'
p4045
I13
sS'vitamin'
p4046
I1
sS'aaliyah'
p4047
I1
sS'motta'
p4048
I1
sS'cousin'
p4049
I2
sS'against'
p4050
I14
sS'scuba'
p4051
I1
sS'und'
p4052
I1
sS'foray'
p4053
I1
sS'path'
p4054
I2
sS'nicer'
p4055
I1
sS'frist'
p4056
I1
sS'three'
p4057
I39
sS'erect'
p4058
I2
sS'specul'
p4059
I1
sS'trigger'
p4060
I1
sS'interest'
p4061
I56
sS'basic'
p4062
I19
sS'akroyd'
p4063
I1
sS'idol'
p4064
I2
sS'threw'
p4065
I2
sS'deeper'
p4066
I1
sS'suppress'
p4067
I1
sS'sooooo'
p4068
I3
sS'anti-arab'
p4069
I1
sS'retel'
p4070
I1
sS'ugli'
p4071
I16
sS'dectect'
p4072
I1
sS'tank'
p4073
I2
sS'servic'
p4074
I1
sS'coltran'
p4075
I1
sS'near'
p4076
I23
sS'sli'
p4077
I2
sS'occas'
p4078
I2
sS'settler'
p4079
I1
sS'spawn'
p4080
I1
sS'ix'
p4081
I1
sS'seven'
p4082
I3
sS'cane'
p4083
I1
sS'mexico'
p4084
I4
sS'cann'
p4085
I1
sS'theatr'
p4086
I21
sS'it'
p4087
I2252
sS'iv'
p4088
I1
sS'ii'
p4089
I10
sS'shame'
p4090
I9
sS'cant'
p4091
I11
sS'catchphras'
p4092
I1
sS'im'
p4093
I16
sS'in'
p4094
I1254
sS'id'
p4095
I5
sS'sever'
p4096
I18
sS'if'
p4097
I335
sS'grown'
p4098
I4
sS'receiv'
p4099
I6
sS'make'
p4100
I345
sS'80s'
p4101
I1
sS'bacaus'
p4102
I1
sS'elli'
p4103
I4
sS'unicorn'
p4104
I1
sS'overt'
p4105
I1
sS'overs'
p4106
I1
sS'overr'
p4107
I49
sS'kid'
p4108
I86
sS'schnieder'
p4109
I1
sS'romp'
p4110
I1
sS'notr'
p4111
I1
sS'rome'
p4112
I2
sS'pandora'
p4113
I1
sS'left'
p4114
I56
sS'yeh'
p4115
I1
sS'identifi'
p4116
I2
sS'just'
p4117
I469
sS'charlott'
p4118
I1
sS'yea'
p4119
I5
sS'nowaday'
p4120
I4
sS'unfair'
p4121
I1
sS'slutti'
p4122
I1
sS'psych'
p4123
I2
sS'human'
p4124
I36
sS'yep'
p4125
I1
sS'yes'
p4126
I27
sS'cretin'
p4127
I2
sS'whitak'
p4128
I1
sS'yet'
p4129
I51
sS'languag'
p4130
I13
sS'legion'
p4131
I1
sS'royal'
p4132
I1
sS'sensat'
p4133
I1
sS'save'
p4134
I72
sS'opt'
p4135
I1
sS'disect'
p4136
I1
sS'infantil'
p4137
I2
sS'vanessa'
p4138
I1
sS'disneyfi'
p4139
I1
sS'vaniti'
p4140
I1
sS'background'
p4141
I6
sS'athlet'
p4142
I3
sS'airhead'
p4143
I4
sS'nudg'
p4144
I1
sS'nude'
p4145
I3
sS'negat'
p4146
I15
sS'digniti'
p4147
I1
sS'live-act'
p4148
I1
sS'unnecessari'
p4149
I2
sS'www'
p4150
I4
sS'dean'
p4151
I2
sS'squander'
p4152
I2
sS'deal'
p4153
I15
sS'disord'
p4154
I4
sS'deaf'
p4155
I1
sS'grodin'
p4156
I2
sS'dead'
p4157
I41
sS'intern'
p4158
I3
sS'intoxc'
p4159
I1
sS'dear'
p4160
I6
sS'wwi'
p4161
I1
sS'norman'
p4162
I2
sS'insensit'
p4163
I1
sS'suckiest'
p4164
I1
sS'normal'
p4165
I6
sS'good-look'
p4166
I1
sS'midler'
p4167
I1
sS'creatur'
p4168
I3
sS'ww2'
p4169
I2
sS'burn'
p4170
I13
sS'jester'
p4171
I1
sS'winona'
p4172
I9
sS'squeamish'
p4173
I2
sS'protagonist'
p4174
I5
sS'promot'
p4175
I10
sS'dragonbal'
p4176
I1
sS'super'
p4177
I7
sS'tyres'
p4178
I1
sS'innuendo'
p4179
I1
sS'badili'
p4180
I1
sS'scenari'
p4181
I1
sS'cliche'
p4182
I1
sS'afternoon'
p4183
I3
sS'commit'
p4184
I4
sS'thinner'
p4185
I1
sS'contriv'
p4186
I12
sS'missus'
p4187
I1
sS'down'
p4188
I79
sS'plod'
p4189
I1
sS'overus'
p4190
I3
sS'imit'
p4191
I4
sS'polakski'
p4192
I1
sS'editor'
p4193
I2
sS'etho'
p4194
I1
sS'prettili'
p4195
I2
sS'form'
p4196
I8
sS'forc'
p4197
I26
sS'batman'
p4198
I4
sS'forg'
p4199
I1
sS'ford'
p4200
I8
sS'synonym'
p4201
I1
sS'tv-g'
p4202
I2
sS'fort'
p4203
I1
sS'isra'
p4204
I1
sS'daddi'
p4205
I8
sS'surpriz'
p4206
I1
sS'unrel'
p4207
I2
sS'propaganda'
p4208
I13
sS'featur'
p4209
I19
sS'classic'
p4210
I35
sS'toss'
p4211
I3
sS'drive'
p4212
I13
sS'tosh'
p4213
I1
sS'bogart'
p4214
I1
sS'glanc'
p4215
I1
sS'die"'
p4216
I1
sS'ship'
p4217
I14
sS'arnaz'
p4218
I1
sS'excel'
p4219
I14
sS'venison'
p4220
I1
sS'matur'
p4221
I1
sS'felt'
p4222
I34
sS'youpatheticfool'
p4223
I1
sS'diet'
p4224
I1
sS'frodo'
p4225
I1
sS'fell'
p4226
I38
sS'stockad'
p4227
I1
sS'gerog'
p4228
I1
sS'weekend'
p4229
I1
sS'russo'
p4230
I1
sS'femal'
p4231
I13
sS'midevil'
p4232
I1
sS'allright'
p4233
I1
sS'moviehous'
p4234
I1
sS'preambl'
p4235
I1
sS'pseudo'
p4236
I2
sS'jacket'
p4237
I1
sS'gorilla'
p4238
I1
sS'ignor'
p4239
I11
sS'teeth'
p4240
I4
sS'meander'
p4241
I2
sS'sooooooooooooooooooooooooooo'
p4242
I1
sS'skip'
p4243
I11
sS'cking'
p4244
I1
sS'skit'
p4245
I1
sS'invent'
p4246
I2
sS'milf'
p4247
I1
sS'mild'
p4248
I3
sS'mile'
p4249
I7
sS'over-us'
p4250
I2
sS'skin'
p4251
I7
sS'sould'
p4252
I1
sS'seller'
p4253
I4
sS'milk'
p4254
I2
sS'depend'
p4255
I3
sS'hound-dog'
p4256
I1
sS'ridcioul'
p4257
I1
sS'father'
p4258
I15
sS'iraqi'
p4259
I1
sS'a-list'
p4260
I2
sS's-her-nam'
p4261
I1
sS'shoot'
p4262
I16
sS'sappi'
p4263
I4
sS'sci-fi'
p4264
I29
sS'yeast'
p4265
I1
sS'lynch'
p4266
I1
sS'ma'
p4267
I2
sS'mcconaughi'
p4268
I1
sS'insignific'
p4269
I1
sS'dil'
p4270
I1
sS'dim'
p4271
I2
sS'honeyman-pinhead'
p4272
I1
sS'did'
p4273
I181
sS'die'
p4274
I52
sS'dig'
p4275
I2
sS'propagandist'
p4276
I1
sS'magnet'
p4277
I1
sS'mm'
p4278
I1
sS'round'
p4279
I1
sS'dis'
p4280
I2
sS'akward'
p4281
I1
sS'demigogu'
p4282
I1
sS'asham'
p4283
I16
sS'worn'
p4284
I1
sS'hazzard'
p4285
I1
sS'filler'
p4286
I2
sS'favour'
p4287
I3
sS'suspect'
p4288
I3
sS'hand-to-hand'
p4289
I1
sS'addl'
p4290
I1
sS'hummer'
p4291
I1
sS'dwarf'
p4292
I2
sS'asault'
p4293
I1
sS'clerk'
p4294
I1
sS'makeup'
p4295
I7
sS'french'
p4296
I7
sS'travolta'
p4297
I12
sS'detest'
p4298
I2
sS'tangent'
p4299
I1
sS'deceit'
p4300
I2
sS'deceiv'
p4301
I1
sS'easton'
p4302
I4
sS'wait'
p4303
I39
sS'box'
p4304
I13
sS'boy'
p4305
I29
sS'hbo'
p4306
I7
sS'insan'
p4307
I10
sS'teribl'
p4308
I1
sS'canadian'
p4309
I1
sS'bop'
p4310
I1
sS'shift'
p4311
I1
sS'bring-up'
p4312
I1
sS'bow'
p4313
I1
sS'bratti'
p4314
I1
sS'extrem'
p4315
I47
sS'bob'
p4316
I10
sS'kauffman'
p4317
I2
sS'elect'
p4318
I2
sS'destoy'
p4319
I1
sS'eccentr'
p4320
I2
sS'franci'
p4321
I2
sS'looooong'
p4322
I1
sS'ariel'
p4323
I1
sS'univers'
p4324
I5
sS'dude'
p4325
I16
sS'everybodi'
p4326
I4
sS'ahhh'
p4327
I1
sS'sharpen'
p4328
I1
sS'thru'
p4329
I4
sS'pinchfac'
p4330
I1
sS'oop'
p4331
I1
sS'savior'
p4332
I1
sS'amelia'
p4333
I1
sS'effort'
p4334
I15
sS'tokyo'
p4335
I1
sS'unimaginativli'
p4336
I1
sS'soul'
p4337
I9
sS'fli'
p4338
I13
sS'wallet'
p4339
I1
sS'sour'
p4340
I1
sS'9th'
p4341
I1
sS'sky'
p4342
I1
sS'claim'
p4343
I11
sS'favourit'
p4344
I2
sS'fabul'
p4345
I1
sS'cantidad'
p4346
I1
sS'predict'
p4347
I51
sS'agent'
p4348
I6
sS'crazi'
p4349
I20
sS'agenc'
p4350
I1
sS'craze'
p4351
I2
sS'pink'
p4352
I3
sS'definatley'
p4353
I1
sS'till'
p4354
I3
sS'sunday'
p4355
I4
sS'kinnear'
p4356
I1
sS'sword'
p4357
I2
sS'trollop'
p4358
I2
sS'snf'
p4359
I1
sS'map'
p4360
I1
sS'144'
p4361
I1
sS'mar'
p4362
I1
sS'sorority-mad'
p4363
I1
sS'tarntino-lik'
p4364
I1
sS'may'
p4365
I45
sS'snl'
p4366
I6
sS'membership'
p4367
I2
sS'mad'
p4368
I11
sS'crappiest'
p4369
I1
sS'underscor'
p4370
I1
sS'grow'
p4371
I6
sS'man'
p4372
I64
sS'close-up'
p4373
I1
sS'aimless'
p4374
I1
sS'omen'
p4375
I2
sS'repuls'
p4376
I3
sS'disembowel'
p4377
I1
sS'q'
p4378
I2
sS'switch'
p4379
I3
sS'jail'
p4380
I1
sS'african'
p4381
I2
sS'talk'
p4382
I42
sS'cute'
p4383
I13
sS'lsd'
p4384
I1
sS'rabbl'
p4385
I2
sS'graduat'
p4386
I5
sS'shake'
p4387
I2
sS'equip'
p4388
I3
sS'shaki'
p4389
I2
sS'pointer'
p4390
I1
sS'interspers'
p4391
I1
sS'group'
p4392
I18
sS'monitor'
p4393
I1
sS'dysfunct'
p4394
I1
sS'maid'
p4395
I1
sS'harold-insan'
p4396
I1
sS'main'
p4397
I25
sS'within'
p4398
I12
sS'ya-ya'
p4399
I1
sS'financi'
p4400
I1
sS'killer'
p4401
I22
sS'shatter'
p4402
I2
sS'initi'
p4403
I2
sS'moron'
p4404
I19
sS'agoni'
p4405
I1
sS'teller'
p4406
I2
sS'possess'
p4407
I3
sS'flont'
p4408
I1
sS'oliv'
p4409
I2
sS'careless'
p4410
I1
sS'rock'
p4411
I24
sS'harken'
p4412
I1
sS'continu'
p4413
I13
sS'girl'
p4414
I58
sS'canada'
p4415
I2
sS'announc'
p4416
I1
sS'jackson'
p4417
I6
sS'3rd'
p4418
I2
sS'moviemak'
p4419
I1
sS'mess'
p4420
I16
sS'twelv'
p4421
I1
sS'christain'
p4422
I1
sS'afghani'
p4423
I1
sS'correct'
p4424
I7
sS'romanc'
p4425
I10
sS'goth'
p4426
I1
sS'diseas'
p4427
I1
sS'monster'
p4428
I5
sS'romano'
p4429
I2
sS'dutchvu'
p4430
I1
sS'zombi'
p4431
I9
sS'romant'
p4432
I9
sS'institut'
p4433
I2
sS'cough'
p4434
I1
sS'shroomwoman'
p4435
I2
sS'where'
p4436
I95
sS'oooeeeeeeeeeeeeeeeeeeeeeeeeeeee'
p4437
I1
sS'thing'
p4438
I187
sS'nuff'
p4439
I3
sS'think'
p4440
I235
sS'frequent'
p4441
I1
sS'first'
p4442
I198
sS'carri'
p4443
I6
sS'lone'
p4444
I4
sS'rachel'
p4445
I5
sS'cheesi'
p4446
I23
sS'fast'
p4447
I12
sS'oppos'
p4448
I2
sS'thoughtless'
p4449
I1
sS'fieri'
p4450
I1
sS'slept'
p4451
I2
sS'unscari'
p4452
I1
sS'soooooooooooooooooooooooooooooooo'
p4453
I1
sS'averag'
p4454
I3
sS'escort'
p4455
I1
sS'penelop'
p4456
I1
sS'murki'
p4457
I2
sS'mermaid'
p4458
I1
sS'subplot'
p4459
I2
sS'hillari'
p4460
I3
sS'broadcast'
p4461
I1
sS'butt'
p4462
I5
sS'11'
p4463
I9
sS'10'
p4464
I25
sS'13'
p4465
I3
sS'12'
p4466
I11
sS'15'
p4467
I20
sS'14'
p4468
I1
sS'16'
p4469
I4
sS'19'
p4470
I2
sS'18'
p4471
I3
sS'gotta'
p4472
I2
sS'were'
p4473
I256
sS'coconut'
p4474
I1
sS'conspiraci'
p4475
I2
sS'complaint-'
p4476
I1
sS'sult'
p4477
I1
sS'preston'
p4478
I1
sS'dash'
p4479
I2
sS'rees'
p4480
I3
sS'comedian'
p4481
I4
sS'nazi'
p4482
I4
sS'kevin'
p4483
I16
sS'squar'
p4484
I2
sS'advic'
p4485
I7
sS'wretch'
p4486
I11
sS'advis'
p4487
I2
sS'shocker'
p4488
I2
sS'channel'
p4489
I5
sS'incoher'
p4490
I1
sS'200'
p4491
I2
sS'pain'
p4492
I30
sS'purti'
p4493
I1
sS'formulat'
p4494
I1
sS'bett'
p4495
I2
sS'track'
p4496
I5
sS'trach'
p4497
I1
sS'sundanc'
p4498
I2
sS'paid'
p4499
I20
sS'exclus'
p4500
I2
sS'tract'
p4501
I1
sS'pair'
p4502
I1
sS'confid'
p4503
I2
sS'cuban'
p4504
I3
sS'pathet'
p4505
I50
sS'angst'
p4506
I4
sS'shop'
p4507
I3
sS'shot'
p4508
I28
sS'show'
p4509
I94
sS'rhetor'
p4510
I1
sS'freeuk'
p4511
I1
sS'corner'
p4512
I2
sS'takin'
p4513
I1
sS'contemporari'
p4514
I1
sS'reek'
p4515
I2
sS'travesti'
p4516
I10
sS'dick'
p4517
I4
sS'behind'
p4518
I12
sS'black'
p4519
I41
sS'enthusiasm'
p4520
I1
sS'revisionist'
p4521
I1
sS'offici'
p4522
I1
sS'sensate'
p4523
I1
sS'get'
p4524
I269
sS'midriff'
p4525
I1
sS'8-11'
p4526
I1
sS'gee'
p4527
I9
sS'shroowoman'
p4528
I1
sS'gen'
p4529
I1
sS'gem'
p4530
I2
sS'guilt-ridden'
p4531
I1
sS'stupit'
p4532
I1
sS'frampton'
p4533
I2
sS'busiest'
p4534
I1
sS'unsubl'
p4535
I1
sS'stupid'
p4536
I235
sS'nostril'
p4537
I1
sS'vito'
p4538
I1
sS'summari'
p4539
I2
sS'trilog'
p4540
I4
sS'branagh'
p4541
I1
sS'ricci'
p4542
I2
sS'singer"'
p4543
I1
sS'menad'
p4544
I1
sS'menac'
p4545
I3
sS'seat'
p4546
I5
sS'sean'
p4547
I6
sS'wonder'
p4548
I51
sS'assinin'
p4549
I2
sS'befuddl'
p4550
I1
sS'enough'
p4551
I71
sS'ten-minut'
p4552
I1
sS'across'
p4553
I10
sS'parent'
p4554
I14
sS'brutalis'
p4555
I1
sS'at-tim'
p4556
I1
sS'meritorus'
p4557
I1
sS'jr'
p4558
I3
sS'tub'
p4559
I3
sS'kirsten'
p4560
I2
sS'tug'
p4561
I1
sS'jfk'
p4562
I1
sS'plaeasur'
p4563
I1
sS'stinker'
p4564
I7
sS'muniz'
p4565
I1
sS'improb'
p4566
I1
sS'epitom'
p4567
I1
sS'tour'
p4568
I1
sS'tout'
p4569
I1
sS'improv'
p4570
I3
sS'conufus'
p4571
I1
sS'among'
p4572
I5
sS'guniea'
p4573
I1
sS'cancer'
p4574
I1
sS'custodi'
p4575
I3
sS'cancel'
p4576
I2
sS'wal-mart"'
p4577
I1
sS'ultim'
p4578
I3
sS'mari'
p4579
I6
sS'lopez'
p4580
I6
sS'arti'
p4581
I1
sS'barri'
p4582
I2
sS'shmack'
p4583
I1
sS'salaci'
p4584
I1
sS'mistreat'
p4585
I1
sS'wake'
p4586
I4
sS'rediculous'
p4587
I1
sS'odyssey'
p4588
I1
sS'those'
p4589
I71
sS'sound'
p4590
I23
sS'cheapquel'
p4591
I1
sS'braff'
p4592
I1
sS'invok'
p4593
I2
sS'ratchet'
p4594
I1
sS'cock'
p4595
I1
sS'destin'
p4596
I3
sS'strain'
p4597
I1
sS'monoloug'
p4598
I1
sS'sudden'
p4599
I10
sS'outrag'
p4600
I2
sS'everyday'
p4601
I1
sS'par'
p4602
I3
sS'pat'
p4603
I1
sS'harsh'
p4604
I1
sS'doctor'
p4605
I2
sS'pay'
p4606
I27
sS'audienc'
p4607
I29
sS'same'
p4608
I63
sS'speech'
p4609
I7
sS'appaul'
p4610
I4
sS'pam'
p4611
I2
sS'pan'
p4612
I7
sS'oil'
p4613
I5
sS'assist'
p4614
I1
sS'capabl'
p4615
I2
sS'disguis'
p4616
I4
sS'lemon'
p4617
I1
sS'charract'
p4618
I1
sS'shopworn'
p4619
I1
sS'drain'
p4620
I2
sS'parodi'
p4621
I10
sS'titl'
p4622
I30
sS'execut'
p4623
I8
sS'money'
p4624
I133
sS'primetim'
p4625
I1
sS'wifey'
p4626
I1
sS'aspect'
p4627
I5
sS'flavor'
p4628
I1
sS'asleep-'
p4629
I1
sS'asthma'
p4630
I1
sS'parad'
p4631
I1
sS'mcdonald'
p4632
I5
sS'ahhhh'
p4633
I1
sS'4'
p4634
I18
sS'wiseman'
p4635
I2
sS'pill'
p4636
I1
sS'grip'
p4637
I3
sS'jake'
p4638
I3
sS'blooooooodd'
p4639
I1
sS'mor'
p4640
I1
sS'chainsaw'
p4641
I4
sS'moo'
p4642
I1
sS'mon'
p4643
I3
sS'mom'
p4644
I8
sS'mob'
p4645
I1
sS'grim'
p4646
I1
sS'grin'
p4647
I1
sS'christina'
p4648
I4
sS'creepier-th'
p4649
I1
sS'juxtaposit'
p4650
I1
sS'either'
p4651
I34
sS'hallelujah'
p4652
I1
sS'cabl'
p4653
I8
sS'doll'
p4654
I3
sS'titan'
p4655
I6
sS'ascend'
p4656
I1
sS'adequ'
p4657
I2
sS'tatoo'
p4658
I1
sS'afflick'
p4659
I1
sS'sommer'
p4660
I1
sS'joan'
p4661
I1
sS'gross'
p4662
I19
sS'confirm'
p4663
I3
sS'genious'
p4664
I1
sS'lunat'
p4665
I1
sS'squabbl'
p4666
I1
sS'knife'
p4667
I1
sS'watchabl'
p4668
I5
sS'broker'
p4669
I1
sS'squall'
p4670
I1
sS'broken'
p4671
I2
sS'raptor'
p4672
I1
sS'opium'
p4673
I1
sS'island'
p4674
I1
sS'uh-uh'
p4675
I1
sS'roam'
p4676
I2
sS'road'
p4677
I5
sS'dagger'
p4678
I1
sS'scenery-chew'
p4679
I1
sS'coupon'
p4680
I1
sS'suicid'
p4681
I6
sS'strip'
p4682
I3
sS'uptown'
p4683
I1
sS'mark'
p4684
I14
sS'story-lin'
p4685
I1
sS'totalitarian'
p4686
I1
sS'brute'
p4687
I1
sS'madder'
p4688
I2
sS'downey'
p4689
I1
sS'downer'
p4690
I4
sS'gore'
p4691
I19
sS'pluh-leas'
p4692
I1
sS'gori'
p4693
I5
sS'gorm'
p4694
I1
sS'spice'
p4695
I2
sS'ludicr'
p4696
I8
sS'romantic'
p4697
I3
sS'possibl'
p4698
I42
sS'reinlist'
p4699
I1
sS'vhs'
p4700
I1
sS'unusu'
p4701
I2
sS'neill'
p4702
I1
sS'manuel'
p4703
I1
sS'deer'
p4704
I5
sS'deep'
p4705
I12
sS'general'
p4706
I17
sS'file'
p4707
I1
sS'cultur'
p4708
I8
sS'girlfriend'
p4709
I9
sS'deed'
p4710
I3
sS'proport'
p4711
I2
sS'snorefest'
p4712
I1
sS'film'
p4713
I580
sS'fill'
p4714
I19
sS'tedious'
p4715
I9
sS'again'
p4716
I72
sS'hybrid'
p4717
I1
sS'field'
p4718
I3
sS'air-sick'
p4719
I1
sS'astronaut'
p4720
I1
sS'brando'
p4721
I3
sS'shelter'
p4722
I1
sS'sequenc'
p4723
I14
sS'philisoph'
p4724
I1
sS'submarin'
p4725
I1
sS'chris'
p4726
I9
sS'bothersom'
p4727
I1
sS'network'
p4728
I1
sS'videotap'
p4729
I3
sS'downfal'
p4730
I1
sS'descript'
p4731
I4
sS'sewel'
p4732
I1
sS'hard-cor'
p4733
I1
sS'foul-mouth'
p4734
I1
sS'sewer'
p4735
I1
sS'u'
p4736
I7
sS'non-sens'
p4737
I1
sS'alright'
p4738
I6
sS'escap'
p4739
I5
sS'oral'
p4740
I2
sS'represent'
p4741
I4
sS'liar'
p4742
I3
sS'forget'
p4743
I12
sS'vile'
p4744
I1
sS'dollar'
p4745
I11
sS'sunk'
p4746
I3
sS'atlant'
p4747
I1
sS'liam'
p4748
I3
sS'children'
p4749
I28
sS'hoofer'
p4750
I1
sS'backstori'
p4751
I1
sS'hideous'
p4752
I2
sS'irrist'
p4753
I1
sS'godfath'
p4754
I2
sS'straightforward'
p4755
I1
sS'completley'
p4756
I1
sS'util'
p4757
I1
sS'ratings-'
p4758
I1
sS'wsa'
p4759
I1
sS'alien'
p4760
I19
sS'pre'
p4761
I2
sS'broderick'
p4762
I1
sS'christ"'
p4763
I1
sS'zero'
p4764
I16
sS'disapoint'
p4765
I7
sS'lawyer'
p4766
I2
sS'well-act'
p4767
I1
sS'further'
p4768
I9
sS'misrepresent'
p4769
I1
sS'excit'
p4770
I19
sS'90s'
p4771
I1
sS'stood'
p4772
I3
sS'bullworth'
p4773
I1
sS'worthwhil'
p4774
I1
sS'abl'
p4775
I15
sS'diaz'
p4776
I5
sS'undevelop'
p4777
I2
sS'saruman'
p4778
I2
sS'garth'
p4779
I1
sS'90i'
p4780
I1
sS'public'
p4781
I16
sS'movement'
p4782
I6
sS'variat'
p4783
I2
sS'sophist'
p4784
I1
sS'surfer'
p4785
I1
sS'ranger'
p4786
I2
sS'reeeeaaal'
p4787
I1
sS'stepford'
p4788
I1
sS'valu'
p4789
I13
sS'fatter'
p4790
I1
sS'search'
p4791
I2
sS'miseri'
p4792
I5
sS'geophys'
p4793
I1
sS'airport'
p4794
I1
sS'narrow'
p4795
I1
sS'barker'
p4796
I2
sS'africa'
p4797
I1
sS'right-w'
p4798
I1
sS'sadist'
p4799
I1
sS'inappropri'
p4800
I1
sS'rican'
p4801
I1
sS'memor'
p4802
I3
sS'eye'
p4803
I18
sS'distinct'
p4804
I4
sS'liber'
p4805
I8
sS'tackl'
p4806
I2
sS'two'
p4807
I96
sS'poorly-act'
p4808
I1
sS'repetiti'
p4809
I1
sS'jive'
p4810
I3
sS'desir'
p4811
I7
sS'dubious'
p4812
I2
sS'particular'
p4813
I14
sS'magnific'
p4814
I2
sS'town'
p4815
I7
sS'dictat'
p4816
I2
sS'none'
p4817
I19
sS'hour'
p4818
I69
sS'hous'
p4819
I20
sS'remain'
p4820
I3
sS'dem'
p4821
I1
sS'sucki'
p4822
I1
sS'abandon'
p4823
I2
sS'dea'
p4824
I1
sS'dec'
p4825
I1
sS'explod'
p4826
I4
sS'shark'
p4827
I4
sS'vaudevill'
p4828
I1
sS'share'
p4829
I7
sS'kripk'
p4830
I1
sS'wal-mart'
p4831
I1
sS'explor'
p4832
I1
sS'explos'
p4833
I3
sS'awkward'
p4834
I2
sS'secur'
p4835
I2
sS'comfort'
p4836
I5
sS'amistad'
p4837
I1
sS'becuas'
p4838
I1
sS'needi'
p4839
I1
sS'needl'
p4840
I1
sS'raunch'
p4841
I1
sS'slow-mo'
p4842
I2
sS'blood'
p4843
I20
sS'associ'
p4844
I7
sS'bleah'
p4845
I1
sS'award-worthi'
p4846
I1
sS'wobbl'
p4847
I1
sS'electron'
p4848
I1
sS'blunder'
p4849
I1
sS'coal'
p4850
I1
sS'ensembl'
p4851
I2
sS'surrealist'
p4852
I1
sS'clumsili'
p4853
I1
sS'psuedo-intellectu'
p4854
I1
sS'through'
p4855
I90
sS'suffer'
p4856
I11
sS'un-scari'
p4857
I2
sS'24'
p4858
I1
sS'25'
p4859
I5
sS'26'
p4860
I1
sS'20'
p4861
I22
sS'dolli'
p4862
I3
sS'22'
p4863
I1
sS'28'
p4864
I1
sS'bosom'
p4865
I2
sS'handheld'
p4866
I1
sS'late'
p4867
I3
sS'pend'
p4868
I1
sS'penn'
p4869
I3
sS'eas'
p4870
I1
sS'peni'
p4871
I2
sS'goof'
p4872
I2
sS'good'
p4873
I335
sS'newsflash'
p4874
I1
sS'adventur'
p4875
I6
sS'complain'
p4876
I3
sS'limpet'
p4877
I1
sS'wallac'
p4878
I1
sS'robbin'
p4879
I2
sS'mysteri'
p4880
I8
sS'easili'
p4881
I15
sS'permanent-parti'
p4882
I1
sS'reminisc'
p4883
I4
sS'idealog'
p4884
I1
sS'mental'
p4885
I12
sS'fish'
p4886
I7
sS'timelin'
p4887
I1
sS'idea'
p4888
I60
sS'connect'
p4889
I6
sS'energi'
p4890
I4
sS'admiss'
p4891
I1
sS'g-rat'
p4892
I3
sS'childish'
p4893
I6
sS'princ'
p4894
I1
sS'wwiii'
p4895
I1
sS'prinz'
p4896
I1
sS'print'
p4897
I2
sS'extraordinari'
p4898
I1
sS'faucet'
p4899
I2
sS'terroist'
p4900
I1
sS'prophet'
p4901
I1
sS'sitcom'
p4902
I3
sS'uber-geek'
p4903
I1
sS'meandur'
p4904
I1
sS'dont'
p4905
I45
sS'exchang'
p4906
I1
sS'barbarian'
p4907
I2
sS'done'
p4908
I35
sS'campground'
p4909
I1
sS'razor'
p4910
I2
sS'5th'
p4911
I1
sS'least'
p4912
I72
sS'paint'
p4913
I9
sS'180'
p4914
I1
sS'statement'
p4915
I6
sS'mama'
p4916
I1
sS'twenti'
p4917
I3
sS'overact'
p4918
I3
sS'scantili'
p4919
I1
sS'park'
p4920
I13
sS'pari'
p4921
I4
sS'glycerin'
p4922
I1
sS'dentist'
p4923
I1
sS'part'
p4924
I100
sS'parr'
p4925
I2
sS'sold'
p4926
I8
sS'exposur'
p4927
I2
sS'b'
p4928
I10
sS'gotten'
p4929
I7
sS'avtak'
p4930
I1
sS'youth'
p4931
I5
sS'fixat'
p4932
I1
sS'tavolta'
p4933
I1
sS'hubbi'
p4934
I1
sS'outta'
p4935
I2
sS'reunion'
p4936
I1
sS'awoken'
p4937
I1
sS'mountain'
p4938
I6
sS'built'
p4939
I1
sS'grusom'
p4940
I1
sS'couch'
p4941
I2
sS'k2'
p4942
I2
sS'caesar'
p4943
I1
sS'build'
p4944
I6
sS'menopaus'
p4945
I1
sS'patterson'
p4946
I1
sS'flute'
p4947
I1
sS'most'
p4948
I176
sS'highflyer'
p4949
I1
sS'charm'
p4950
I7
sS'charl'
p4951
I1
sS'redem'
p4952
I1
sS'kc'
p4953
I1
sS'ko'
p4954
I1
sS'pueril'
p4955
I1
sS'unfocus'
p4956
I2
sS'comdey'
p4957
I1
sS'sreenplay'
p4958
I1
sS'witherspoon'
p4959
I2
sS'downbeat'
p4960
I1
sS'strangeland'
p4961
I1
sS'fine'
p4962
I15
sS'find'
p4963
I68
sS'phooey'
p4964
I1
sS'giant'
p4965
I4
sS'disappoin'
p4966
I1
sS'nervous'
p4967
I1
sS'ruin'
p4968
I28
sS'poppin'
p4969
I2
sS'ebert'
p4970
I3
sS'schlockfest'
p4971
I1
sS'schartzeneg'
p4972
I1
sS'8'
p4973
I11
sS'villian'
p4974
I2
sS'luke'
p4975
I1
sS'ferrel'
p4976
I4
sS'express'
p4977
I8
sS'cheaper'
p4978
I3
sS'biddi'
p4979
I1
sS'wonka'
p4980
I1
sS'uncomfort'
p4981
I1
sS'commentari'
p4982
I2
sS'common'
p4983
I9
sS'gospel'
p4984
I2
sS'californian'
p4985
I1
sS'vinc'
p4986
I1
sS'lion'
p4987
I4
sS'expert'
p4988
I2
sS'debas'
p4989
I1
sS'someth'
p4990
I91
sS'malkovich'
p4991
I3
sS'hold'
p4992
I16
sS'experi'
p4993
I16
sS'bulimia'
p4994
I2
sS'meal'
p4995
I3
sS'altern'
p4996
I1
sS'freebird'
p4997
I1
sS'appreci'
p4998
I6
sS'infam'
p4999
I1
sS'allarm'
p5000
I1
sS'shaman'
p5001
I2
sS'clueless'
p5002
I2
sS'madelin'
p5003
I2
sS'marilyn'
p5004
I1
sS'popul'
p5005
I2
sS'subtitl'
p5006
I3
sS'fan-'
p5007
I1
sS'foreign'
p5008
I6
sS'alot'
p5009
I15
sS'anti-war'
p5010
I1
sS'simpli'
p5011
I39
sS'elliot'
p5012
I1
sS'point'
p5013
I61
sS'pre-adolesc'
p5014
I1
sS'headachey'
p5015
I1
sS'ahhhhhhhhhhhhhhhhh'
p5016
I1
sS'throughout'
p5017
I16
sS'ravag'
p5018
I1
sS'buffoneri'
p5019
I1
sS'secret'
p5020
I5
sS'pile'
p5021
I12
sS'caribeean'
p5022
I1
sS'gentil'
p5023
I2
sS'floor-fac'
p5024
I1
sS'gay'
p5025
I11
sS'cyborg'
p5026
I1
sS'gas'
p5027
I3
sS'unnecessarili'
p5028
I1
sS'gap'
p5029
I1
sS'kathi'
p5030
I3
sS'35mm'
p5031
I1
sS'understand'
p5032
I31
sS'whitney'
p5033
I1
sS'gag'
p5034
I12
sS'repetit'
p5035
I1
sS'chatter'
p5036
I1
sS'cruelti'
p5037
I3
sS'x-men'
p5038
I4
sS'fantas'
p5039
I1
sS'awfal'
p5040
I1
sS'solid'
p5041
I2
sS'bill'
p5042
I16
sS'holocaust'
p5043
I5
sS'crutch'
p5044
I3
sS'fug'
p5045
I1
sS'paintbal'
p5046
I1
sS'fun'
p5047
I39
sS'graini'
p5048
I1
sS'everyon'
p5049
I47
sS'larger'
p5050
I2
sS'goodfella'
p5051
I1
sS'genr'
p5052
I16
sS'itself'
p5053
I20
sS'centuri'
p5054
I3
sS'ludicri'
p5055
I2
sS'routin'
p5056
I2
sS'marqu'
p5057
I1
sS'earn'
p5058
I4
sS'butcher'
p5059
I3
sS'incarn'
p5060
I2
sS'itali'
p5061
I3
sS'ruth'
p5062
I1
sS'eww'
p5063
I1
sS'neutron'
p5064
I1
sS'yesterday'
p5065
I1
sS'hog-ti'
p5066
I1
sS'moment'
p5067
I43
sS'bulshit'
p5068
I1
sS'klaptrap'
p5069
I1
sS'frankenstien'
p5070
I1
sS'swish'
p5071
I1
sS'knowel'
p5072
I1
sS'functionari'
p5073
I1
sS'chemistri'
p5074
I16
sS'steller'
p5075
I1
sS'spent'
p5076
I22
sS'morrow'
p5077
I1
sS'braveheart'
p5078
I3
sS'werewolv'
p5079
I1
sS'landmark'
p5080
I2
sS'nolt'
p5081
I1
sS'tast'
p5082
I17
sS'spend'
p5083
I12
sS'howl'
p5084
I1
sS'explan'
p5085
I4
sS'yucki'
p5086
I2
sS'obscur'
p5087
I3
sS'shape'
p5088
I1
sS'1962'
p5089
I1
sS'jumpsuit'
p5090
I1
sS'depriv'
p5091
I1
sS'task'
p5092
I1
sS'cut'
p5093
I15
sS'cup'
p5094
I1
sS'sinist'
p5095
I2
sS'persuad'
p5096
I1
sS'cue'
p5097
I2
sS'ill-advis'
p5098
I1
sS'easter'
p5099
I2
sS'hater'
p5100
I1
sS'bin'
p5101
I5
sS'midshow'
p5102
I1
sS'trueli'
p5103
I2
sS'big'
p5104
I77
sS'rebound'
p5105
I1
sS'judgement'
p5106
I1
sS'redeem'
p5107
I20
sS'bit'
p5108
I36
sS'blech'
p5109
I2
sS'missing-'
p5110
I1
sS'knock'
p5111
I9
sS'moriah'
p5112
I1
sS'semi'
p5113
I1
sS'glove'
p5114
I4
sS'flux'
p5115
I1
sS'latt'
p5116
I1
sS'foolish'
p5117
I3
sS'sequil'
p5118
I1
sS'scrip'
p5119
I2
sS'often'
p5120
I5
sS'30s'
p5121
I1
sS'back'
p5122
I86
sS'extremist'
p5123
I1
sS'martial'
p5124
I5
sS'mirror'
p5125
I2
sS'bruci'
p5126
I1
sS'scale'
p5127
I4
sS'pet'
p5128
I2
sS'per'
p5129
I2
sS'pel'
p5130
I1
sS'lara'
p5131
I3
sS'larg'
p5132
I8
sS'bogus'
p5133
I2
sS'lard'
p5134
I1
sS'exager'
p5135
I2
sS'pee'
p5136
I1
sS'carpent'
p5137
I2
sS'epic'
p5138
I8
sS'reproduc'
p5139
I1
sS'nose'
p5140
I4
sS'ladder'
p5141
I1
sS'manichaean'
p5142
I1
sS'patient'
p5143
I2
sS'300'
p5144
I1
sS'oew'
p5145
I1
sS'fed'
p5146
I2
sS'patienc'
p5147
I1
sS'religeon'
p5148
I1
sS'metaphor'
p5149
I1
sS'crone'
p5150
I1
sS'impos'
p5151
I1
sS'3-rd'
p5152
I1
sS'drama'
p5153
I23
sS'blechh'
p5154
I1
sS'predat'
p5155
I2
sS'disminish'
p5156
I1
sS'high-qual'
p5157
I1
sS'jimmi'
p5158
I3
sS'steven'
p5159
I8
sS'atroci'
p5160
I9
sS'framer'
p5161
I1
sS'lesson'
p5162
I5
sS'characht'
p5163
I1
sS'inclus'
p5164
I1
sS'modicum'
p5165
I2
sS'witchcraft'
p5166
I4
sS'errand'
p5167
I1
sS'excruti'
p5168
I1
sS'includ'
p5169
I15
sS'forward'
p5170
I11
sS'implaus'
p5171
I2
sS'one-lin'
p5172
I1
sS'translat'
p5173
I8
sS'murphi'
p5174
I5
sS'watership'
p5175
I1
sS'carcatur'
p5176
I1
sS'planet'
p5177
I13
sS'jumbl'
p5178
I1
sS'cathol'
p5179
I1
sS'constant'
p5180
I7
sS'curs'
p5181
I2
sS'metal'
p5182
I4
sS'utilis'
p5183
I1
sS'cure'
p5184
I3
sS'time--ful'
p5185
I1
sS'diector'
p5186
I1
sS'kirk'
p5187
I2
sS'harharharhar'
p5188
I1
sS'lend'
p5189
I2
sS'lens'
p5190
I1
sS'whatdehay'
p5191
I1
sS'oedipus'
p5192
I1
sS'deserv'
p5193
I31
sS'mantel'
p5194
I1
sS'oppress'
p5195
I4
sS'2002'
p5196
I1
sS'2003'
p5197
I4
sS'2000'
p5198
I2
sS'2001'
p5199
I5
sS'2004'
p5200
I2
sS'tube'
p5201
I1
sS'credenc'
p5202
I1
sS'jason'
p5203
I30
sS'definit'
p5204
I16
sS'privat'
p5205
I7
sS'drive-in'
p5206
I1
sS'sensit'
p5207
I2
sS'blaze'
p5208
I1
sS'maryland'
p5209
I3
sS'non-commiss'
p5210
I1
sS'anticlimact'
p5211
I1
sS'desserv'
p5212
I1
sS'mous'
p5213
I1
sS'volum'
p5214
I1
sS'knight'
p5215
I2
sS'joel'
p5216
I1
sS'shock'
p5217
I22
sS'brangelina'
p5218
I1
sS'kinsmen'
p5219
I2
sS'havent'
p5220
I3
sS'coorper'
p5221
I1
sS'joey'
p5222
I1
sS'fortun'
p5223
I3
sS'crow'
p5224
I2
sS'crop'
p5225
I2
sS'ishtar'
p5226
I3
sS'chicago'
p5227
I1
sS'resembl'
p5228
I2
sS'profan'
p5229
I26
sS'piper'
p5230
I1
sS'access'
p5231
I1
sS'raunch-fest'
p5232
I1
sS'3d'
p5233
I1
sS'nacho'
p5234
I1
sS'ration'
p5235
I1
sS'irreplacealbl'
p5236
I1
sS'embattl'
p5237
I1
sS'joddi'
p5238
I1
sS'bodi'
p5239
I9
sS'sink'
p5240
I8
sS'sing'
p5241
I20
sS'sinc'
p5242
I44
sS'mindset'
p5243
I2
sS'remark'
p5244
I4
sS'talent'
p5245
I45
sS'cera'
p5246
I1
sS'conceiv'
p5247
I2
sS'30'
p5248
I16
sS'dabney'
p5249
I1
sS'35'
p5250
I1
sS'later'
p5251
I17
sS'climb'
p5252
I2
sS'honor'
p5253
I2
sS'ovat'
p5254
I1
sS'limp'
p5255
I3
sS'ultra-bor'
p5256
I1
sS'limb'
p5257
I1
sS'scandal'
p5258
I2
sS'cheesy-ass'
p5259
I1
sS'sermon'
p5260
I1
sS'micallef'
p5261
I1
sS'wardrob'
p5262
I1
sS'tar'
p5263
I2
sS'oili'
p5264
I1
sS'nobel'
p5265
I1
sS'websit'
p5266
I3
sS'asteroid'
p5267
I1
sS'cut-out'
p5268
I1
sS'butler'
p5269
I1
sS'one-dimension'
p5270
I4
sS'dentistri'
p5271
I1
sS'unplaus'
p5272
I1
sS'gladiat'
p5273
I2
sS'train'
p5274
I9
sS'daugher'
p5275
I1
sS'iii'
p5276
I3
sS'son-in-law'
p5277
I1
sS'account'
p5278
I2
sS'alik'
p5279
I2
sS'britney'
p5280
I3
sS'f'
p5281
I17
sS'gabriel'
p5282
I1
sS'unreal'
p5283
I3
sS'obvious'
p5284
I31
sS'poseur'
p5285
I2
sS'fetch'
p5286
I2
sS'aliv'
p5287
I1
sS'tarantino'
p5288
I10
sS'contempl'
p5289
I3
sS'carwreck'
p5290
I1
sS'uncreat'
p5291
I4
sS'yu-gi-oh'
p5292
I2
sS'yurelf'
p5293
I1
sS'downhil'
p5294
I2
sS'onlin'
p5295
I1
sS'prece'
p5296
I1
sS'bonet'
p5297
I1
sS'lamb'
p5298
I2
sS'surfac'
p5299
I1
sS'lame'
p5300
I51
sS'characters--black'
p5301
I1
sS'forest'
p5302
I2
sS'stock'
p5303
I3
sS'y'
p5304
I1
sS'unentertain'
p5305
I3
sS'fram'
p5306
I1
sS'bevvi'
p5307
I1
sS'redund'
p5308
I2
sS'philosophi'
p5309
I1
sS'physic'
p5310
I6
sS'aniston'
p5311
I2
sS'bink'
p5312
I1
sS'bind'
p5313
I1
sS'bing'
p5314
I2
sS'liner'
p5315
I2
sS'furious'
p5316
I2
sS'ricer'
p5317
I1
sS'imperson'
p5318
I1
sS'meter'
p5319
I1
sS'bunch'
p5320
I32
sS'le'
p5321
I1
sS'tsk'
p5322
I2
sS'birthplac'
p5323
I1
sS'la'
p5324
I3
sS'lo'
p5325
I2
sS'boy-meets-girl'
p5326
I1
sS'li'
p5327
I6
sS'kindergarten'
p5328
I1
sS'heroism'
p5329
I2
sS'blatant'
p5330
I4
sS'glossiest'
p5331
I1
sS'ly'
p5332
I2
sS'dad'
p5333
I7
sS'greater'
p5334
I1
sS'camus'
p5335
I1
sS'dam'
p5336
I2
sS'spell'
p5337
I2
sS'swordfish'
p5338
I1
sS's-u-c-k-e-d'
p5339
I1
sS'mention'
p5340
I21
sS'courtroom'
p5341
I1
sS'dar'
p5342
I1
sS'das'
p5343
I1
sS'day'
p5344
I74
sS'gadzook'
p5345
I1
sS'flail'
p5346
I1
sS'e-v-e-r'
p5347
I1
sS'thrill'
p5348
I1
sS'cider'
p5349
I1
sS'disregard'
p5350
I1
sS'slacker'
p5351
I2
sS'jockstrap'
p5352
I1
sS'bobbybo'
p5353
I1
sS'himself--and'
p5354
I1
sS'intellig'
p5355
I24
sS'einstein'
p5356
I1
sS'over-analyz'
p5357
I1
sS'sexual'
p5358
I18
sS'stur'
p5359
I1
sS'matt'
p5360
I5
sS'defend'
p5361
I1
sS'cheeseburg'
p5362
I1
sS'stun'
p5363
I4
sS'defens'
p5364
I3
sS'math'
p5365
I3
sS'wholli'
p5366
I3
sS'retrievel'
p5367
I1
sS'harold'
p5368
I1
sS'jessica'
p5369
I1
sS'insid'
p5370
I6
sS'frank'
p5371
I10
sS'coen'
p5372
I7
sS'fourteen'
p5373
I2
sS'que'
p5374
I1
sS'releas'
p5375
I10
sS'afterward'
p5376
I2
sS'septemb'
p5377
I1
sS'yard'
p5378
I3
sS'curiosity-sinc'
p5379
I1
sS'baaaaaaaaad'
p5380
I1
sS'lobotom'
p5381
I1
sS'presid'
p5382
I8
sS'retain'
p5383
I1
sS'south'
p5384
I12
sS'ghast'
p5385
I1
sS'finest'
p5386
I2
sS'franki'
p5387
I1
sS'sack'
p5388
I1
sS'philadelphia'
p5389
I1
sS'whoop'
p5390
I1
sS'puppet'
p5391
I3
sS'sacr'
p5392
I2
sS'facil'
p5393
I1
sS'suffic'
p5394
I1
sS'ancient'
p5395
I4
sS'monkey'
p5396
I6
sS'vulgar'
p5397
I7
sS'messag'
p5398
I19
sS'fahrenheit'
p5399
I2
sS'baby"'
p5400
I1
sS'fratern'
p5401
I1
sS'hilari'
p5402
I13
sS'cabin'
p5403
I2
sS'gear'
p5404
I3
sS'negro'
p5405
I1
sS'karaok'
p5406
I1
sS'spiegel'
p5407
I1
sS'nobodi'
p5408
I5
sS'dreari'
p5409
I1
sS'hungov'
p5410
I1
sS'slack'
p5411
I2
sS'caveziel'
p5412
I1
sS'charact'
p5413
I158
sS'sweden'
p5414
I1
sS'circumspect'
p5415
I1
sS'lover'
p5416
I5
sS'kubrick'
p5417
I15
sS'fraudul'
p5418
I1
sS'men-folk'
p5419
I1
sS'ta-ta'
p5420
I1
sS'immigr'
p5421
I1
sS'have'
p5422
I642
sS'throat'
p5423
I2
sS'clunker'
p5424
I3
sS'dementia'
p5425
I1
sS'terribley'
p5426
I1
sS'min'
p5427
I7
sS'mia'
p5428
I1
sS'mic'
p5429
I1
sS'mid'
p5430
I1
sS'cosbi'
p5431
I2
sS'mix'
p5432
I9
sS'graviti'
p5433
I1
sS'unless'
p5434
I24
sS'sfx'
p5435
I2
sS'salli'
p5436
I1
sS'mortal'
p5437
I1
sS'sfo'
p5438
I1
sS'eight'
p5439
I2
sS'herman'
p5440
I1
sS'lame-o'
p5441
I2
sS'douch'
p5442
I1
sS'gather'
p5443
I2
sS'clive'
p5444
I2
sS'absurd'
p5445
I5
sS'occasion'
p5446
I7
sS'50-1'
p5447
I1
sS'voyuer'
p5448
I1
sS'hamlet'
p5449
I1
sS'pinhead'
p5450
I1
sS'empir'
p5451
I3
sS'texa'
p5452
I9
sS'staff'
p5453
I1
sS'categor'
p5454
I1
sS'scorpion'
p5455
I2
sS'hyster'
p5456
I1
sS'satan'
p5457
I8
sS'self-involv'
p5458
I1
sS'riceburn'
p5459
I1
sS'communist'
p5460
I1
sS'inferior'
p5461
I2
sS'jews_white_slaveri'
p5462
I1
sS'strawberri'
p5463
I1
sS'beat'
p5464
I13
sS'rush'
p5465
I4
sS'bear'
p5466
I3
sS'beal'
p5467
I1
sS'atroc'
p5468
I4
sS'bean'
p5469
I2
sS'farley'
p5470
I4
sS'increas'
p5471
I1
sS'photographi'
p5472
I1
sS'lecter'
p5473
I1
sS'reluct'
p5474
I2
sS'organ'
p5475
I2
sS'travisti'
p5476
I1
sS'gibson'
p5477
I17
sS'waterworld'
p5478
I1
sS'madam'
p5479
I1
sS'potboil'
p5480
I1
sS'horrend'
p5481
I10
sS'ocular'
p5482
I1
sS'interes'
p5483
I1
sS'skynet'
p5484
I1
sS'indoctrin'
p5485
I1
sS'progress'
p5486
I1
sS'gratuti'
p5487
I2
sS'legit'
p5488
I1
sS'pecent'
p5489
I1
sS'boloney'
p5490
I2
sS'instant'
p5491
I5
sS'joke'
p5492
I71
sS'equal'
p5493
I8
sS'instanc'
p5494
I2
sS'equat'
p5495
I2
sS'swim'
p5496
I1
sS'swallow'
p5497
I3
sS'highland'
p5498
I1
sS'devout'
p5499
I1
sS'comment'
p5500
I23
sS'yuppi'
p5501
I1
sS'guidelin'
p5502
I1
sS'accolad'
p5503
I2
sS'denis'
p5504
I2
sS'non-zombi'
p5505
I1
sS'basing'
p5506
I1
sS'fright'
p5507
I2
sS'catherin'
p5508
I2
sS'romero'
p5509
I4
sS'nonhonor'
p5510
I1
sS'certain'
p5511
I19
sS'upbeat'
p5512
I2
sS'muddl'
p5513
I1
sS'goddess'
p5514
I1
sS'assert'
p5515
I2
sS'bull'
p5516
I11
sS'fellow'
p5517
I1
sS'caddi'
p5518
I1
sS'homer'
p5519
I2
sS'vapid'
p5520
I4
sS'plain'
p5521
I34
sS'defin'
p5522
I7
sS'tohught'
p5523
I1
sS'bitti'
p5524
I1
sS'ill'
p5525
I9
sS'ncaa'
p5526
I1
sS'langaug'
p5527
I1
sS'bicker'
p5528
I2
sS'almost'
p5529
I67
sS'dissent'
p5530
I1
sS'squid'
p5531
I1
sS'pseudo-histor'
p5532
I1
sS'partner'
p5533
I2
sS'bloodless'
p5534
I1
sS'deber'
p5535
I1
sS'auto-cu'
p5536
I1
sS'portray'
p5537
I25
sS'japanes'
p5538
I11
sS'defiant'
p5539
I1
sS'foxx'
p5540
I1
sS'puuuuleeez'
p5541
I1
sS'prais'
p5542
I11
sS'mean-spirit'
p5543
I3
sS'retard'
p5544
I11
sS'center'
p5545
I3
sS'nevertheless'
p5546
I1
sS'weapon'
p5547
I11
sS'antonio'
p5548
I1
sS'thought'
p5549
I118
sS'retart'
p5550
I2
sS'choos'
p5551
I2
sS'usual'
p5552
I35
sS'coaster'
p5553
I2
sS'humdrum'
p5554
I1
sS'clinic'
p5555
I3
sS'feminin'
p5556
I1
sS'surpass'
p5557
I1
sS'nikelodeon'
p5558
I1
sS'tough'
p5559
I2
sS'griffith'
p5560
I3
sS'flashlight'
p5561
I2
sS'work-'
p5562
I1
sS'effin'
p5563
I1
sS'add'
p5564
I16
sS'reunit'
p5565
I1
sS'niro'
p5566
I4
sS'smart'
p5567
I5
sS'raven'
p5568
I1
sS'punctuat'
p5569
I1
sS'realiz'
p5570
I13
sS'freshmor'
p5571
I1
sS'nemesi'
p5572
I3
sS'judiciari'
p5573
I1
sS'insert'
p5574
I2
sS'backbon'
p5575
I1
sS'success'
p5576
I14
sS'sex-cent'
p5577
I1
sS'heed'
p5578
I1
sS'scriptwrit'
p5579
I1
sS'chick'
p5580
I14
sS'stupedist'
p5581
I1
sS'soft'
p5582
I1
sS'italian'
p5583
I2
sS'enterta'
p5584
I1
sS'no-wher'
p5585
I1
sS'hair'
p5586
I7
sS'convey'
p5587
I2
sS'proper'
p5588
I4
sS'est'
p5589
I2
sS'anti-castro'
p5590
I1
sS'war-mong'
p5591
I1
sS'unfunni'
p5592
I30
sS'catchprase-origin'
p5593
I1
sS'regain'
p5594
I1
sS'pepper'
p5595
I3
sS'slight'
p5596
I11
sS'amittyvill'
p5597
I1
sS'host'
p5598
I3
sS'degener'
p5599
I1
sS'although'
p5600
I20
sS'panel'
p5601
I1
sS'about'
p5602
I382
sS'actual'
p5603
I114
sS'justin'
p5604
I3
sS'justic'
p5605
I4
sS'justif'
p5606
I1
sS'tomb'
p5607
I4
sS'miscast'
p5608
I6
sS'desper'
p5609
I7
sS'guard'
p5610
I2
sS'doesnt'
p5611
I3
sS'esteem'
p5612
I2
sS'awhil'
p5613
I1
sS'genuis'
p5614
I1
sS'1987'
p5615
I1
sS'1985'
p5616
I1
sS'1983'
p5617
I2
sS'1980'
p5618
I1
sS'pictur'
p5619
I37
sS'redeam'
p5620
I3
sS'biggest'
p5621
I28
sS'buy'
p5622
I21
sS'rodger'
p5623
I1
sS'unexpect'
p5624
I1
sS'attitdu'
p5625
I1
sS'brand'
p5626
I2
sS'sequel'
p5627
I51
sS'but'
p5628
I670
sS'jawbreak'
p5629
I1
sS'bul'
p5630
I1
sS'bum'
p5631
I1
sS'comatos'
p5632
I1
sS'bug'
p5633
I4
sS'bud'
p5634
I1
sS'real-lif'
p5635
I1
sS'wise'
p5636
I2
sS'farrah'
p5637
I1
sS'that4hr'
p5638
I1
sS'wish'
p5639
I32
sS'j'
p5640
I5
sS'flip'
p5641
I1
sS'killabuds4every1'
p5642
I1
sS'glori'
p5643
I3
sS'caretak'
p5644
I1
sS'rosanna'
p5645
I1
sS'dure'
p5646
I27
sS'pic'
p5647
I2
sS'pie'
p5648
I5
sS'pig'
p5649
I3
sS'pyschiatr'
p5650
I1
sS'dawson'
p5651
I1
sS'anjelica'
p5652
I1
sS'autism'
p5653
I1
sS'probabl'
p5654
I34
sS'tricki'
p5655
I2
sS'48'
p5656
I1
sS'44'
p5657
I1
sS'45'
p5658
I5
sS'detail'
p5659
I7
sS'virtual'
p5660
I4
sS'headmistress'
p5661
I1
sS'nelson'
p5662
I1
sS'allthough'
p5663
I1
sS'perfectly-aw'
p5664
I1
sS'best-act'
p5665
I1
sS'basketbal'
p5666
I1
sS'pilat'
p5667
I1
sS'armor'
p5668
I2
sS'yell'
p5669
I4
sS'cookbook'
p5670
I1
sS'8th'
p5671
I1
sS'high-budget'
p5672
I1
sS'hatr'
p5673
I2
sS'oscar-what'
p5674
I1
sS'fancy-p'
p5675
I1
sS'sleep'
p5676
I26
sS'hate'
p5677
I144
sS'asthet'
p5678
I1
sS'invas'
p5679
I2
sS'ozzi'
p5680
I1
sS'under'
p5681
I20
sS'pride'
p5682
I1
sS'suitabl'
p5683
I1
sS'exxcept'
p5684
I1
sS'everi'
p5685
I67
sS'risk'
p5686
I3
sS'rise'
p5687
I2
sS'ident'
p5688
I2
sS'jack'
p5689
I15
sS'school'
p5690
I25
sS'flashi'
p5691
I2
sS'regret"'
p5692
I1
sS'harrier'
p5693
I1
sS'enjoy'
p5694
I60
sS'naiv'
p5695
I1
sS'direct'
p5696
I56
sS'pessimsit'
p5697
I2
sS'nail'
p5698
I6
sS'street'
p5699
I10
sS'blue'
p5700
I11
sS'allergi'
p5701
I1
sS'hide'
p5702
I6
sS'christ'
p5703
I6
sS'solemn'
p5704
I1
sS'beaten'
p5705
I2
sS'poison'
p5706
I1
sS'filmmak'
p5707
I7
sS'disney'
p5708
I17
sS'mcauley'
p5709
I1
sS'zack'
p5710
I1
sS'ad-lib'
p5711
I1
sS'yanke'
p5712
I2
sS'studio'
p5713
I7
sS'aftermath'
p5714
I1
sS'aaaahhhhh'
p5715
I1
sS'non-whit'
p5716
I1
sS'forum'
p5717
I1
sS'anymor'
p5718
I11
sS'squiggl'
p5719
I1
sS'precis'
p5720
I2
sS'bastardis'
p5721
I1
sS'incas'
p5722
I1
sS'incap'
p5723
I1
sS'tremend'
p5724
I1
sS'stray'
p5725
I1
sS'iconoclasm'
p5726
I1
sS'kryptic'
p5727
I1
sS'julia'
p5728
I13
sS'melani'
p5729
I1
sS'eastwood'
p5730
I2
sS'describ'
p5731
I16
sS'would'
p5732
I302
sS'lazenbi'
p5733
I1
sS'arthurian'
p5734
I1
sS'spike'
p5735
I2
sS'preview'
p5736
I15
sS'moiv'
p5737
I2
sS'grier'
p5738
I2
sS'dialoug'
p5739
I6
sS'protagnoist'
p5740
I1
sS'grief'
p5741
I3
sS'phone'
p5742
I1
sS'jangl'
p5743
I1
sS'phoni'
p5744
I6
sS'must'
p5745
I47
sS'me'
p5746
I353
sS'join'
p5747
I5
sS'henri'
p5748
I2
sS'dafo'
p5749
I1
sS'mn'
p5750
I1
sS'mp'
p5751
I1
sS'ms'
p5752
I1
sS'mr'
p5753
I21
sS'my'
p5754
I383
sS'military-typ'
p5755
I1
sS'mayhem'
p5756
I1
sS'attract'
p5757
I14
sS'end'
p5758
I165
sS'fals'
p5759
I5
sS'ultra-liber'
p5760
I2
sS'keel'
p5761
I1
sS'gate'
p5762
I1
sS'widespread'
p5763
I1
sS'collaps'
p5764
I1
sS'hiliar'
p5765
I1
sS'elizabeth'
p5766
I2
sS'claptrap'
p5767
I4
sS'daltri'
p5768
I1
sS'lump'
p5769
I2
sS'befor'
p5770
I54
sS'delicaci'
p5771
I1
sS'shrek'
p5772
I4
sS'spout'
p5773
I1
sS'exclud'
p5774
I1
sS'insuffer'
p5775
I1
sS'daredevil'
p5776
I1
sS'danni'
p5777
I4
sS'funniest'
p5778
I5
sS'mega-bomb'
p5779
I1
sS'enter'
p5780
I1
sS'plagu'
p5781
I2
sS'reflux'
p5782
I1
sS'behav'
p5783
I1
sS'deform'
p5784
I1
sS'over'
p5785
I117
sS'fall'
p5786
I42
sS'orang'
p5787
I5
sS'becaus'
p5788
I178
sS'carnag'
p5789
I2
sS'london'
p5790
I1
sS'oven'
p5791
I1
sS'digest'
p5792
I1
sS'borneo'
p5793
I2
sS'suvari'
p5794
I2
sS'imo'
p5795
I1
sS'tramp'
p5796
I1
sS'vengenc'
p5797
I1
sS'fade'
p5798
I1
sS'hypocrisi'
p5799
I2
sS'comprehens'
p5800
I1
sS'terorrist'
p5801
I1
sS'tourist'
p5802
I1
sS'rental'
p5803
I9
sS'choic'
p5804
I3
sS'30-year'
p5805
I1
sS'alex'
p5806
I3
sS'victori'
p5807
I2
sS'harri'
p5808
I10
sS'choir'
p5809
I1
sS'arquett'
p5810
I3
sS'each'
p5811
I20
sS'yung'
p5812
I1
sS'alec'
p5813
I2
sS'wheel'
p5814
I1
sS'unapp'
p5815
I2
sS'dorkass'
p5816
I1
sS'saturday'
p5817
I2
sS'depress'
p5818
I15
sS'goe'
p5819
I36
sS'god'
p5820
I60
sS'psychic'
p5821
I3
sS'two-hour'
p5822
I1
sS'gob'
p5823
I1
sS'laid'
p5824
I4
sS'got'
p5825
I103
sS'unimagin'
p5826
I5
sS'bald'
p5827
I2
sS'inov'
p5828
I1
sS'disorgan'
p5829
I1
sS'free'
p5830
I12
sS'fred'
p5831
I3
sS'evil'
p5832
I19
sS'stormar'
p5833
I1
sS'distract'
p5834
I4
sS'immor'
p5835
I1
sS'heck'
p5836
I7
sS'hecl'
p5837
I1
sS'hopeless'
p5838
I4
sS'differnt'
p5839
I1
sS'onto'
p5840
I3
sS'fantasi'
p5841
I8
sS'rang'
p5842
I1
sS'rank'
p5843
I5
sS'rant'
p5844
I3
sS'alreadi'
p5845
I22
sS'fantast'
p5846
I10
sS'primari'
p5847
I1
sS'toy'
p5848
I4
sS'corpul'
p5849
I1
sS'sarcasm'
p5850
I3
sS'top'
p5851
I32
sS'fiction'
p5852
I14
sS'sarcast'
p5853
I3
sS'ton'
p5854
I6
sS'too'
p5855
I186
sS'tom'
p5856
I35
sS'carrey'
p5857
I19
sS'toe'
p5858
I1
sS'urban'
p5859
I7
sS'murder'
p5860
I15
sS'ritter'
p5861
I1
sS'tool'
p5862
I4
sS'took'
p5863
I26
sS'western'
p5864
I4
sS'conserv'
p5865
I3
sS'1979'
p5866
I1
sS'predictib'
p5867
I1
sS'tranpar'
p5868
I1
sS'10th'
p5869
I1
sS'screenplay'
p5870
I10
sS'rag'
p5871
I1
sS'donkey'
p5872
I5
sS'fashion'
p5873
I4
sS'ran'
p5874
I7
sS'thr'
p5875
I1
sS'raw'
p5876
I2
sS'rat'
p5877
I4
sS'rap'
p5878
I3
sS'ohhhh'
p5879
I1
sS'lbj'
p5880
I1
sS'spade'
p5881
I3
sS'ray'
p5882
I3
sS'1964'
p5883
I2
sS'1960'
p5884
I1
sS'thorough'
p5885
I1
sS'thoma'
p5886
I3
sS'dian'
p5887
I1
sS'naturallyyou'
p5888
I1
sS'plenti'
p5889
I5
sS'though'
p5890
I68
sS'posner'
p5891
I2
sS'phantasm'
p5892
I1
sS'bsb'
p5893
I1
sS'late-night'
p5894
I1
sS'flop'
p5895
I5
sS'flow'
p5896
I2
sS'yawn-induc'
p5897
I1
sS'declar'
p5898
I1
sS'flog'
p5899
I3
sS'saga'
p5900
I2
sS'queen'
p5901
I2
sS'radio'
p5902
I1
sS'academi'
p5903
I8
sS'radic'
p5904
I1
sS'earth'
p5905
I18
sS'bail'
p5906
I2
sS'absolut'
p5907
I76
sS'vinni'
p5908
I2
sS'spite'
p5909
I4
sS'pseudo-intellectu'
p5910
I1
sS'awsom'
p5911
I1
sS'sympathet'
p5912
I1
sS'1940'
p5913
I1
sS'disgust'
p5914
I35
sS'geez'
p5915
I1
sS'uhhh'
p5916
I1
sS'watch'
p5917
I311
sS'photograph'
p5918
I1
sS'geek'
p5919
I2
sS'report'
p5920
I6
sS'sabrina'
p5921
I1
sS'fashza'
p5922
I1
sS'twice'
p5923
I6
sS'pacifist'
p5924
I1
sS'pfeiffer'
p5925
I1
sS'swept'
p5926
I1
sS'robbi'
p5927
I1
sS'nut'
p5928
I4
sS'charect'
p5929
I1
sS'pseudo-class'
p5930
I1
sS'inapt'
p5931
I1
sS'nun'
p5932
I1
sS'corrupt'
p5933
I3
sS'simultani'
p5934
I1
sS'half-heart'
p5935
I1
sS'percuss'
p5936
I1
sS'grumbl'
p5937
I1
sS'mud'
p5938
I1
sS'outstand'
p5939
I1
sS'finger'
p5940
I2
sS'approach'
p5941
I4
sS'360'
p5942
I2
sS'weak'
p5943
I22
sS'boss'
p5944
I4
sS'wear'
p5945
I8
sS'f13'
p5946
I1
sS'news'
p5947
I3
sS'protect'
p5948
I4
sS'fault'
p5949
I3
sS'myer'
p5950
I13
sS'tushi'
p5951
I1
sS'recircul'
p5952
I1
sS'maudlin'
p5953
I3
sS'dougla'
p5954
I3
sS'trust'
p5955
I11
sS'nake'
p5956
I8
sS'zeta-jon'
p5957
I2
sS'bathroom'
p5958
I6
sS'beef'
p5959
I1
sS'nonsens'
p5960
I16
sS'infinit'
p5961
I1
sS'stivic'
p5962
I1
sS'been'
p5963
I153
sS'beer'
p5964
I2
sS'splatter'
p5965
I1
sS'slow-mot'
p5966
I1
sS'stubbl'
p5967
I1
sS'xxx'
p5968
I1
sS'craft'
p5969
I2
sS'predic'
p5970
I1
sS'catch'
p5971
I7
sS'snipe'
p5972
I3
sS'teapot'
p5973
I1
sS'macguir'
p5974
I1
sS'screenwrit'
p5975
I3
sS'fallon'
p5976
I1
sS'lessen'
p5977
I1
sS'propabl'
p5978
I1
sS'n'
p5979
I8
sS'lesser'
p5980
I1
sS'weren'
p5981
I17
sS'ugliest'
p5982
I2
sS'depp'
p5983
I3
sS'chick-fil-a'
p5984
I1
sS'exterior'
p5985
I1
sS'blood-soak'
p5986
I1
sS'hollywood-is'
p5987
I1
sS'suggest'
p5988
I11
sS'stone-fac'
p5989
I1
sS'novelett'
p5990
I1
sS'complex'
p5991
I3
sS'complet'
p5992
I81
sS'leftist'
p5993
I2
sS'screw'
p5994
I8
sS'pick'
p5995
I17
sS'camouflag'
p5996
I2
sS'tyson'
p5997
I1
sS'characterz'
p5998
I1
sS'ocean'
p5999
I3
sS'greatest'
p6000
I15
sS'charliz'
p6001
I2
sS'mother'
p6002
I17
sS'everyth'
p6003
I34
sS'laptop'
p6004
I1
sS'grader'
p6005
I2
sS'enlighten'
p6006
I2
sS'expos'
p6007
I2
sS'elm'
p6008
I1
sS'puppetri'
p6009
I1
sS'achili'
p6010
I1
sS'lawrenc'
p6011
I7
sS'els'
p6012
I36
sS'gave'
p6013
I35
sS'aids-infect'
p6014
I1
sS'busey'
p6015
I1
sS'apart'
p6016
I9
sS'trivia'
p6017
I1
sS'ditto'
p6018
I1
sS'gift'
p6019
I4
sS'bygon'
p6020
I1
sS'hunt'
p6021
I17
sS'dishonest'
p6022
I3
sS'50'
p6023
I17
sS'herend'
p6024
I1
sS'unstabl'
p6025
I2
sS'hackman'
p6026
I4
sS'digimon'
p6027
I4
sS'hung'
p6028
I1
sS'amor'
p6029
I1
sS'delinqu'
p6030
I1
sS'56'
p6031
I1
sS'spongebob'
p6032
I1
sS'smarmi'
p6033
I2
sS'paltrow'
p6034
I7
sS'donald'
p6035
I1
sS'mis-cast'
p6036
I1
sS'cooper'
p6037
I1
sS'yike'
p6038
I3
sS'reffer'
p6039
I1
sS'ice'
p6040
I6
sS'totali'
p6041
I2
sS'convict'
p6042
I1
sS'brawl'
p6043
I1
sS'corn'
p6044
I1
sS'thrill-less'
p6045
I1
sS'discount'
p6046
I3
sS'olsen'
p6047
I1
sS'money-grub'
p6048
I1
sS'meyer'
p6049
I1
sS'chapter'
p6050
I1
sS'horiibl'
p6051
I1
sS'cowboy'
p6052
I1
sS'choke'
p6053
I1
sS'surround'
p6054
I3
sS'unfortun'
p6055
I15
sS'festiv'
p6056
I2
sS'dinner'
p6057
I2
sS'plus'
p6058
I18
sS'tacki'
p6059
I2
sS'twitch'
p6060
I1
sS'produc'
p6061
I34
sS'duke'
p6062
I2
sS'bate'
p6063
I4
sS'civic'
p6064
I2
sS'civil'
p6065
I2
sS'ahh'
p6066
I2
sS'decapit'
p6067
I1
sS'puke'
p6068
I8
sS'coastal'
p6069
I1
sS'zellwegg'
p6070
I2
sS'debacl'
p6071
I1
sS'pearl'
p6072
I9
sS'frustrat'
p6073
I3
sS'transform'
p6074
I2
sS'sunlight'
p6075
I1
sS'gig'
p6076
I7
sS'stuck'
p6077
I4
sS'reli'
p6078
I6
sS'gia'
p6079
I1
sS'gim'
p6080
I1
sS'head'
p6081
I25
sS'amateur'
p6082
I1
sS'altogeth'
p6083
I5
sS'excerpt'
p6084
I1
sS'heal'
p6085
I1
sS'6'
p6086
I6
sS'unconvinc'
p6087
I4
sS'uuuh'
p6088
I1
sS'hear'
p6089
I17
sS'heap'
p6090
I4
sS'choreograph'
p6091
I2
sS'nerdi'
p6092
I3
sS'bargain'
p6093
I4
sS'hmm'
p6094
I2
sS'camaro'
p6095
I1
sS'kaufman'
p6096
I4
sS'cocain'
p6097
I1
sS'furi'
p6098
I1
sS'trip'
p6099
I10
sS'assembl'
p6100
I2
sS'ni'
p6101
I2
sS'nj'
p6102
I1
sS'no'
p6103
I346
sS'tit'
p6104
I1
sS'tip'
p6105
I4
sS'sloth-lik'
p6106
I1
sS'til'
p6107
I2
sS'tooooo'
p6108
I1
sS'tin'
p6109
I1
sS'whew'
p6110
I1
sS'tie'
p6111
I4
sS'nt'
p6112
I3
sS'tappi'
p6113
I2
sS'screwbal'
p6114
I1
sS'phoenix'
p6115
I1
sS'pg-13'
p6116
I6
sS'bruckheim'
p6117
I4
sS'consid'
p6118
I38
sS'stinkin'
p6119
I1
sS'younger'
p6120
I7
sS'faster'
p6121
I3
sS'bullet'
p6122
I3
sS'time-travel'
p6123
I1
sS'ryder'
p6124
I3
sS'whalberg'
p6125
I1
sS'bambi'
p6126
I1
sS'vietnam'
p6127
I1
sS'serious'
p6128
I27
sS'backward'
p6129
I1
sS'azaria'
p6130
I1
sS'coach'
p6131
I1
sS'ron'
p6132
I2
sS'impression'
p6133
I1
sS'rob'
p6134
I18
sS'celebr'
p6135
I3
sS'rod'
p6136
I1
sS'ouch'
p6137
I6
sS'signific'
p6138
I5
sS'stumbl'
p6139
I2
sS'deprav'
p6140
I2
sS'rot'
p6141
I3
sS'row'
p6142
I1
sS'slow-go'
p6143
I1
sS'1942'
p6144
I1
sS'b-movi'
p6145
I3
sS'1941'
p6146
I2
sS'sourc'
p6147
I2
sS'sequal'
p6148
I5
sS'hatter'
p6149
I1
sS'anyway'
p6150
I23
sS'1492'
p6151
I1
sS'feel-good'
p6152
I1
sS'cook'
p6153
I2
sS'heston'
p6154
I2
sS'cool'
p6155
I33
sS'looney'
p6156
I1
sS'level'
p6157
I6
sS'valentin'
p6158
I2
sS'brother'
p6159
I16
sS'shortcom'
p6160
I1
sS'mind-numb'
p6161
I2
sS'so-bad-it'
p6162
I1
sS'quick'
p6163
I15
sS'electocut'
p6164
I1
sS'farrel'
p6165
I2
sS'clay-anim'
p6166
I1
sS'porn'
p6167
I6
sS'trend'
p6168
I6
sS'cyber'
p6169
I1
sS'colin'
p6170
I1
sS'porr'
p6171
I1
sS'spin-off'
p6172
I1
sS'fear'
p6173
I6
sS'inconclus'
p6174
I1
sS'croft'
p6175
I3
sS'goer'
p6176
I1
sS'interraci'
p6177
I1
sS'529'
p6178
I1
sS'buscemi'
p6179
I1
sS'angelina'
p6180
I8
sS'water'
p6181
I20
sS'entertain'
p6182
I39
sS'witch'
p6183
I20
sS'unnatur'
p6184
I1
sS'sheriff'
p6185
I1
sS'shove'
p6186
I2
sS'potray'
p6187
I1
sS'goldmemb'
p6188
I6
sS'thirti'
p6189
I2
sS'prude'
p6190
I3
sS'paxton'
p6191
I1
sS'weird'
p6192
I9
sS'guilti'
p6193
I4
sS'preposter'
p6194
I3
sS'sleak'
p6195
I1
sS'humour'
p6196
I11
sS'habor'
p6197
I1
sS'1st'
p6198
I1
sS'ravolta'
p6199
I2
sS'ipecac'
p6200
I1
sS'concoct'
p6201
I2
sS'vivid'
p6202
I1
sS'memori'
p6203
I4
sS'lip-synch'
p6204
I1
sS'msn'
p6205
I1
sS'upheld'
p6206
I1
sS'dangrous'
p6207
I1
sS'today'
p6208
I16
sS'plug'
p6209
I1
sS'capit'
p6210
I3
sS'well-lit'
p6211
I1
sS'drown'
p6212
I2
sS'kerri'
p6213
I1
sS'budweis'
p6214
I1
sS'duma'
p6215
I1
sS'piano'
p6216
I2
sS'chauvin'
p6217
I1
sS'religi'
p6218
I6
sS'judi'
p6219
I1
sS'maguir'
p6220
I1
sS'juda'
p6221
I1
sS'meathead'
p6222
I4
sS'battl'
p6223
I11
sS'jude'
p6224
I4
sS'judd'
p6225
I3
sS'boonton'
p6226
I1
sS'purpos'
p6227
I12
sS'laughter'
p6228
I4
sS'slightest'
p6229
I6
sS'stream'
p6230
I1
sS'stroke'
p6231
I2
sS'flashdanc'
p6232
I1
sS'semi-funni'
p6233
I1
sS'1'
p6234
I59
sS'alway'
p6235
I27
sS'anyon'
p6236
I88
sS'fourth'
p6237
I2
sS'clone'
p6238
I5
sS'levi'
p6239
I1
sS'clint'
p6240
I1
sS'classroom'
p6241
I1
sS'unsettl'
p6242
I1
sS'practic'
p6243
I4
sS'bow-wow'
p6244
I1
sS'osborn'
p6245
I1
sS'inform'
p6246
I4
sS'reaper'
p6247
I1
sS'combin'
p6248
I10
sS'gerard'
p6249
I1
sS'refund'
p6250
I3
sS'wothless'
p6251
I1
sS'anticip'
p6252
I1
sS'worship'
p6253
I2
sS'bacal'
p6254
I1
sS'freagin'
p6255
I1
sS'plotlin'
p6256
I5
sS'molass'
p6257
I1
sS'verbiag'
p6258
I1
sS'aaaahhhhhhh'
p6259
I1
sS'wagon'
p6260
I1
sS'term'
p6261
I4
sS'terl'
p6262
I1
sS'name'
p6263
I34
sS'teri'
p6264
I1
sS'realist'
p6265
I5
sS'opera'
p6266
I1
sS'terd'
p6267
I1
sS'cerebr'
p6268
I1
sS'two-dimension'
p6269
I1
sS'realism'
p6270
I1
sS'notabl'
p6271
I1
sS'aht'
p6272
I1
sS'individu'
p6273
I3
sS'torch'
p6274
I2
sS'begun'
p6275
I2
sS'dench'
p6276
I1
sS'dispos'
p6277
I3
sS'hysteria'
p6278
I1
sS'flaccid'
p6279
I1
sS'putrid'
p6280
I3
sS'concur'
p6281
I2
sS'dredg'
p6282
I1
sS'oddment'
p6283
I1
sS'leviathan'
p6284
I1
sS'uncl'
p6285
I1
sS'gush'
p6286
I2
sS'glimps'
p6287
I1
sS'hulk'
p6288
I2
sS'non-obnoxi'
p6289
I1
sS'unremark'
p6290
I3
sS'theorn'
p6291
I1
sS'theori'
p6292
I6
sS'boobi'
p6293
I1
sS'judea'
p6294
I1
sS'llock'
p6295
I1
sS'flare'
p6296
I1
sS'psychot'
p6297
I2
sS'dirk'
p6298
I1
sS'refus'
p6299
I2
sS'motion'
p6300
I6
sS'turn'
p6301
I50
sS'place'
p6302
I28
sS'swing'
p6303
I3
sS'refug'
p6304
I1
sS'view'
p6305
I24
sS'imposs'
p6306
I6
sS'1000'
p6307
I4
sS'origin'
p6308
I70
sS'feign'
p6309
I1
sS'suspend'
p6310
I1
sS'suspenc'
p6311
I3
sS'mid-lif'
p6312
I2
sS'insist'
p6313
I2
sS'suspens'
p6314
I19
sS'pokemon'
p6315
I10
sS'given'
p6316
I20
sS'ian'
p6317
I1
sS'teenag'
p6318
I20
sS'virgin'
p6319
I2
sS'pooness'
p6320
I1
sS'bloom'
p6321
I1
sS'trillion'
p6322
I3
sS'plastic'
p6323
I4
sS'necessarili'
p6324
I3
sS'circl'
p6325
I4
sS'white'
p6326
I37
sS'circa'
p6327
I1
sS'hue'
p6328
I1
sS'face-in-the-sand'
p6329
I1
sS'six-pack'
p6330
I2
sS'hun'
p6331
I1
sS'copi'
p6332
I21
sS'huh'
p6333
I4
sS'enigma'
p6334
I2
sS'ground--'
p6335
I1
sS'winslet'
p6336
I2
sS'serv'
p6337
I9
sS'wide'
p6338
I3
sS'lmao'
p6339
I2
sS'bollock'
p6340
I1
sS'r'
p6341
I7
sS'coat'
p6342
I2
sS'posit'
p6343
I12
sS'seri'
p6344
I42
sS'and'
p6345
I2492
sS'selznick'
p6346
I1
sS'rene'
p6347
I6
sS'pro'
p6348
I1
sS'stiffler'
p6349
I1
sS'ani'
p6350
I170
sS'renn'
p6351
I1
sS'ant'
p6352
I2
sS'redford'
p6353
I2
sS'rent'
p6354
I60
sS'tylenol'
p6355
I1
sS'dragon'
p6356
I1
sS'stolid'
p6357
I1
sS'superman'
p6358
I5
sS'wantab'
p6359
I1
sS'fifth-rat'
p6360
I1
sS'techniqu'
p6361
I3
sS'constrant'
p6362
I1
sS'blunt'
p6363
I1
sS'surf'
p6364
I1
sS'manniquin'
p6365
I1
sS'sure'
p6366
I45
sS'tornado'
p6367
I4
sS'cigarett'
p6368
I1
sS'frig'
p6369
I1
sS'feardotcom'
p6370
I1
sS'icon'
p6371
I1
sS'proud'
p6372
I3
sS'name--l'
p6373
I1
sS'senior'
p6374
I2
sS'babbl'
p6375
I1
sS'hungri'
p6376
I2
sS'cheat'
p6377
I5
sS'cheap'
p6378
I18
sS'byonc'
p6379
I2
sS'troy'
p6380
I2
sS'exitsign'
p6381
I1
sS'hack'
p6382
I6
sS'spacey'
p6383
I3
sS'mister'
p6384
I1
sS'catfight'
p6385
I1
sS'terrentino'
p6386
I1
sS'nadir'
p6387
I1
sS'genius'
p6388
I4
sS'cheech'
p6389
I1
sS'written'
p6390
I30
sS'crime'
p6391
I7
sS'wood'
p6392
I16
sS'cautionari'
p6393
I1
sS'nobl'
p6394
I1
sS'tailor'
p6395
I1
sS'lighter'
p6396
I1
sS'brit'
p6397
I3
sS'reveal'
p6398
I4
sS'hellooooo'
p6399
I1
sS'tng'
p6400
I1
sS'sssstttuuupppiiiddd'
p6401
I1
sS'anti-aryan'
p6402
I1
sS'conscienc'
p6403
I1
sS'labori'
p6404
I1
sS'stanley'
p6405
I3
sS'detect'
p6406
I2
sS'mekar'
p6407
I1
sS'review'
p6408
I29
sS'duchovni'
p6409
I1
sS'voluntari'
p6410
I1
sS'hiss'
p6411
I1
sS'likeabl'
p6412
I3
sS'guitar'
p6413
I1
sS'comm'
p6414
I1
sS'coma'
p6415
I2
sS'comb'
p6416
I1
sS'come'
p6417
I99
sS'21'
p6418
I1
sS'reaction'
p6419
I1
sS'berri'
p6420
I11
sS'stupidest'
p6421
I15
sS'outway'
p6422
I1
sS'contract'
p6423
I2
sS'pronto'
p6424
I1
sS'three-lay'
p6425
I1
sS'overstyl'
p6426
I1
sS'catwoman'
p6427
I3
sS'color'
p6428
I2
sS'pow'
p6429
I1
sS'pot'
p6430
I2
sS'inspir'
p6431
I5
sS'por'
p6432
I1
sS'period'
p6433
I11
sS'pop'
p6434
I13
sS'29'
p6435
I2
sS'duti'
p6436
I2
sS'poo'
p6437
I12
sS'pole'
p6438
I2
sS'65'
p6439
I1
sS'69'
p6440
I1
sS'coloni'
p6441
I1
sS'alongsid'
p6442
I1
sS'turkey'
p6443
I19
sS'coupl'
p6444
I32
sS'howard'
p6445
I2
sS'illog'
p6446
I4
sS'voight'
p6447
I2
sS'in-law'
p6448
I1
sS'homosexuality-'
p6449
I1
sS'dfficult'
p6450
I1
sS'tasteless'
p6451
I8
sS'andrew'
p6452
I1
sS'would-b'
p6453
I2
sS'tiger'
p6454
I2
sS'spirit'
p6455
I5
sS'pilot'
p6456
I9
sS'case'
p6457
I19
sS'shiney'
p6458
I1
sS'myself'
p6459
I35
sS'long-dist'
p6460
I1
sS'amend'
p6461
I1
sS'cash'
p6462
I9
sS'arnold'
p6463
I6
sS'cast'
p6464
I45
sS'50s'
p6465
I1
sS'projectil'
p6466
I1
sS'vest'
p6467
I1
sS'sub-par'
p6468
I2
sS'inauthent'
p6469
I1
sS'empath'
p6470
I1
sS'mcgregor'
p6471
I1
sS'author'
p6472
I3
sS'bowl'
p6473
I1
sS'check'
p6474
I10
sS'squadroom'
p6475
I1
sS'html'
p6476
I2
sS'eventu'
p6477
I3
sS'hermit'
p6478
I3
sS'week'
p6479
I11
sS'persona'
p6480
I1
sS'committe'
p6481
I1
sS'applaud'
p6482
I1
sS'confidenti'
p6483
I1
sS'driver'
p6484
I4
sS'mutha'
p6485
I1
sS'weed'
p6486
I1
sS'director'
p6487
I49
sS'devoid'
p6488
I5
sS'drivel'
p6489
I9
sS'beleiv'
p6490
I3
sS'mockeri'
p6491
I4
sS'cartoon'
p6492
I17
sS'handsom'
p6493
I2
sS'moder'
p6494
I3
sS'reliev'
p6495
I1
sS'ranch'
p6496
I1
sS'kungfu'
p6497
I1
sS'shalyman'
p6498
I1
sS'justifi'
p6499
I4
sS'shamala'
p6500
I3
sS'without'
p6501
I37
sS'relief'
p6502
I2
sS'anthropomorph'
p6503
I1
sS'goos'
p6504
I1
sS'model'
p6505
I6
sS'flakey'
p6506
I1
sS'satir'
p6507
I5
sS'clog'
p6508
I1
sS'4kid'
p6509
I1
sS'violenc'
p6510
I37
sS'ya'
p6511
I6
sS'when'
p6512
I235
sS'actress'
p6513
I26
sS'violent'
p6514
I13
sS'kill'
p6515
I71
sS'harrison'
p6516
I6
sS'polish'
p6517
I1
sS'goriest'
p6518
I1
sS'cloy'
p6519
I1
sS'halfway'
p6520
I4
sS'blow'
p6521
I17
sS'detach'
p6522
I1
sS'hint'
p6523
I1
sS'rose'
p6524
I4
sS'casablanca'
p6525
I2
sS'except'
p6526
I42
sS'notori'
p6527
I1
sS'kingdom'
p6528
I1
sS'supposit'
p6529
I1
sS'dismemb'
p6530
I1
sS'oevral'
p6531
I1
sS'understandable--just'
p6532
I1
sS'divorc'
p6533
I2
sS'katherin'
p6534
I1
sS'1988'
p6535
I1
sS'snore'
p6536
I3
sS'beckinsal'
p6537
I1
sS'substandard'
p6538
I1
sS'pleaaasssee'
p6539
I1
sS'rammstein'
p6540
I1
sS'badly-act'
p6541
I1
sS'electrocut'
p6542
I1
sS'freez'
p6543
I1
sS'slice'
p6544
I3
sS'mood'
p6545
I4
sS'farcic'
p6546
I1
sS'slick'
p6547
I1
sS'landscap'
p6548
I1
sS'moon'
p6549
I2
sS'moor'
p6550
I21
sS'hipster'
p6551
I1
sS'unbeliev'
p6552
I22
sS'complic'
p6553
I2
sS'freed'
p6554
I1
sS'garbag'
p6555
I55
sS'slaughter'
p6556
I2
sS'smashmouth'
p6557
I1
sS'earlier'
p6558
I4
sS'on'
p6559
I525
sS'jeez'
p6560
I1
sS'ol'
p6561
I3
sS'ok'
p6562
I27
sS'oh'
p6563
I57
sS'of'
p6564
I2318
sS'od'
p6565
I1
sS'oz'
p6566
I1
sS'oy'
p6567
I1
sS'hindu'
p6568
I1
sS'doze'
p6569
I1
sS'or'
p6570
I305
sS'whitnail'
p6571
I1
sS'exept'
p6572
I1
sS'anti-climact'
p6573
I1
sS'gari'
p6574
I6
sS'garner'
p6575
I3
sS'spinal'
p6576
I2
sS'burton'
p6577
I3
sS'pullman'
p6578
I1
sS're-hash'
p6579
I1
sS'there'
p6580
I285
sS'racism'
p6581
I7
sS'strict'
p6582
I2
sS'racist'
p6583
I10
sS'strong'
p6584
I5
sS'hard'
p6585
I54
sS'regard'
p6586
I3
sS'concess'
p6587
I1
sS'jus'
p6588
I2
sS'burrn'
p6589
I1
sS'untal'
p6590
I1
sS'reliz'
p6591
I1
sS'longer'
p6592
I8
sS'f-word'
p6593
I4
sS'sleazi'
p6594
I2
sS'lacklustr'
p6595
I1
sS'polanski'
p6596
I1
sS'antartica'
p6597
I1
sS'grass'
p6598
I1
sS'mongoloid'
p6599
I1
sS'chaplin'
p6600
I1
sS'toilet'
p6601
I7
sS'taylor'
p6602
I1
sS'cinema'
p6603
I11
sS'frighten'
p6604
I6
sS'sensitil'
p6605
I1
sS'crude-fest'
p6606
I1
sS'intro'
p6607
I1
sS'dogvill'
p6608
I8
sS'russel'
p6609
I8
sS'gram'
p6610
I1
sS'abyss'
p6611
I2
sS'fiddler'
p6612
I1
sS'idiot'
p6613
I31
sS'compel'
p6614
I8
sS'rubber'
p6615
I4
sS'5'
p6616
I31
sS'heathen'
p6617
I1
sS'trash'
p6618
I50
sS'abysm'
p6619
I3
sS'symbol'
p6620
I4
sS'briefli'
p6621
I1
sS'kingsley'
p6622
I1
sS'brass'
p6623
I1
sS'shuga'
p6624
I1
sS'wife'
p6625
I19
sS'streisand'
p6626
I2
sS'invest'
p6627
I4
sS'uglier'
p6628
I1
sS'rutger'
p6629
I1
sS'cabbag'
p6630
I1
sS'shakesper'
p6631
I1
sS'potenti'
p6632
I9
sS'god-aw'
p6633
I5
sS'degrad'
p6634
I2
sS'trooper'
p6635
I2
sS'talentless'
p6636
I2
sS'all'
p6637
I504
sS'lace'
p6638
I4
sS'ali'
p6639
I1
sS'stlye'
p6640
I1
sS'ale'
p6641
I1
sS'ala'
p6642
I2
sS'abil'
p6643
I13
sS'follow'
p6644
I27
sS'settlement'
p6645
I1
sS'kutcher'
p6646
I2
sS'program'
p6647
I1
sS'humili'
p6648
I1
sS're-titl'
p6649
I1
sS'irishgit'
p6650
I3
sS'liter'
p6651
I8
sS'solem'
p6652
I1
sS'song'
p6653
I18
sS'far'
p6654
I50
sS'soni'
p6655
I1
sS'clevag'
p6656
I1
sS'fat'
p6657
I18
sS'focus'
p6658
I12
sS'psychologist'
p6659
I1
sS'worst'
p6660
I260
sS'failur'
p6661
I7
sS'ticket'
p6662
I11
sS'fad'
p6663
I1
sS'list'
p6664
I27
sS'trench'
p6665
I2
sS'lisa'
p6666
I1
sS'scientolog'
p6667
I3
sS'teh'
p6668
I1
sS'ten'
p6669
I21
sS'tea'
p6670
I1
sS'ted'
p6671
I3
sS'sophomor'
p6672
I2
sS'bandera'
p6673
I4
sS'design'
p6674
I4
sS'bopper'
p6675
I3
sS'lesser-tal'
p6676
I1
sS'telephon'
p6677
I1
sS'will'
p6678
I147
sS'what'
p6679
I406
sS'sub'
p6680
I2
sS'magnolia'
p6681
I1
sS'cheesey'
p6682
I1
sS'brief'
p6683
I3
sS'guna'
p6684
I1
sS'cinemat'
p6685
I5
sS'suv'
p6686
I1
sS'version'
p6687
I42
sS'deepli'
p6688
I1
sS'ang'
p6689
I2
sS'escepi'
p6690
I1
sS'christian'
p6691
I12
sS'tragedi'
p6692
I3
sS'behaviour'
p6693
I1
sS'shouldn'
p6694
I15
sS'goodby'
p6695
I1
sS'naval'
p6696
I2
sS'high-school'
p6697
I2
sS'extremem'
p6698
I1
sS'aflac'
p6699
I1
sS'verri'
p6700
I5
sS'magnitud'
p6701
I1
sS'eeeewwwww'
p6702
I1
sS'fartsi'
p6703
I1
sS'quicki'
p6704
I1
sS'voyag'
p6705
I1
sS'1900'
p6706
I1
sS'revil'
p6707
I1
sS'stripteas'
p6708
I1
sS'proceed'
p6709
I2
sS'mulholland'
p6710
I1
sS'wield'
p6711
I1
sS'hostag'
p6712
I1
sS'bizarr'
p6713
I5
sS'garnish'
p6714
I1
sS'rustin'
p6715
I1
sS'minor'
p6716
I14
sS'flat'
p6717
I12
sS'flaw'
p6718
I4
sS'donnel'
p6719
I1
sS'headache-induc'
p6720
I1
sS'hoffman'
p6721
I2
sS'stutter'
p6722
I1
sS'mira'
p6723
I1
sS'alltim'
p6724
I1
sS'flag'
p6725
I4
sS'stick'
p6726
I26
sS'known'
p6727
I8
sS'mellow'
p6728
I1
sS'glad'
p6729
I15
sS'valuabl'
p6730
I4
sS'policemen'
p6731
I1
sS'caveat'
p6732
I1
sS'v'
p6733
I1
sS'motiv'
p6734
I3
sS'co-host'
p6735
I1
sS'orlean'
p6736
I1
sS'second-r'
p6737
I1
sS'cours'
p6738
I31
sS'court'
p6739
I2
sS'goal'
p6740
I2
sS'divid'
p6741
I2
sS'rather'
p6742
I44
sS'satanist'
p6743
I1
sS'townshend'
p6744
I1
sS'scienc'
p6745
I9
sS'goat'
p6746
I1
sS'shouldnt'
p6747
I2
sS'resourc'
p6748
I1
sS'cancun'
p6749
I1
sS'reflect'
p6750
I3
sS'wayan'
p6751
I3
sS'catalog'
p6752
I2
sS'numb'
p6753
I5
sS'obi-wan'
p6754
I1
sS'short'
p6755
I14
sS'caug'
p6756
I1
sS'susan'
p6757
I1
sS'marlon'
p6758
I2
sS'caus'
p6759
I22
sS'shore'
p6760
I1
sS'shade'
p6761
I1
sS'aforment'
p6762
I1
sS'essenci'
p6763
I1
sS'cartridg'
p6764
I1
sS'mission'
p6765
I4
sS'isnt'
p6766
I2
sS'scientist'
p6767
I4
sS'uninterst'
p6768
I1
sS'crabtre'
p6769
I3
sS'scof'
p6770
I1
sS'style'
p6771
I10
sS'pray'
p6772
I2
sS'wilder'
p6773
I2
sS'resort'
p6774
I4
sS'dross'
p6775
I1
sS'stephen'
p6776
I3
sS'argentina'
p6777
I1
sS'sloppi'
p6778
I3
sS'senat'
p6779
I1
sS'airtim'
p6780
I1
sS'wouldn'
p6781
I27
sS'return'
p6782
I6
sS'protaganist'
p6783
I1
sS'woulda'
p6784
I2
sS'somebodi'
p6785
I11
sS'receeed'
p6786
I1
sS'vaughn'
p6787
I1
sS'bollywood'
p6788
I1
sS'bigger'
p6789
I2
sS'braindead'
p6790
I1
sS'ceas'
p6791
I1
sS's-good'
p6792
I1
sS'wwf-like'
p6793
I1
sS'weight'
p6794
I2
sS'needless'
p6795
I1
sS'stiller'
p6796
I8
sS'expect'
p6797
I55
sS'inflict'
p6798
I2
sS'flimsi'
p6799
I2
sS'alcohol'
p6800
I1
sS'britsih'
p6801
I1
sS'prolli'
p6802
I1
sS'hill'
p6803
I5
sS'predispos'
p6804
I1
sS'fiber'
p6805
I1
sS'advanc'
p6806
I3
sS'reallli'
p6807
I3
sS'friday'
p6808
I15
sS'differ'
p6809
I25
sS'speratt'
p6810
I1
sS'prison-guard-with-a-heart'
p6811
I1
sS'rikki'
p6812
I1
sS'teach'
p6813
I4
sS'sere'
p6814
I1
sS'stepbroth'
p6815
I1
sS'jew'
p6816
I3
sS'thrown'
p6817
I8
sS'thread'
p6818
I3
sS'perhap'
p6819
I17
sS'deja'
p6820
I1
sS'cloying--most'
p6821
I1
sS'fallen'
p6822
I2
sS'feed'
p6823
I1
sS'sympathi'
p6824
I4
sS'feel'
p6825
I79
sS'dink'
p6826
I1
sS'cose'
p6827
I1
sS'feet'
p6828
I3
sS'sailor'
p6829
I1
sS'pretenti'
p6830
I11
sS'juilet'
p6831
I1
sS'bland'
p6832
I6
sS'plummer'
p6833
I1
sS'script'
p6834
I52
sS'interact'
p6835
I3
sS'stori'
p6836
I172
sS'storm'
p6837
I7
sS'sware'
p6838
I1
sS'syrup'
p6839
I1
sS'store'
p6840
I9
sS'luckili'
p6841
I1
sS'watcher'
p6842
I1
sS'option'
p6843
I1
sS'pump'
p6844
I1
sS'filmic'
p6845
I1
sS'smile-worthi'
p6846
I1
sS'scoobi'
p6847
I2
sS'uncut'
p6848
I1
sS'king'
p6849
I12
sS'kind'
p6850
I44
sS'simplist'
p6851
I6
sS'5-star'
p6852
I1
sS'whenev'
p6853
I3
sS'remot'
p6854
I8
sS'remov'
p6855
I3
sS'dant'
p6856
I1
sS'knive'
p6857
I2
sS'riski'
p6858
I2
sS'architect'
p6859
I1
sS'stale'
p6860
I4
sS'communitit'
p6861
I1
sS'danc'
p6862
I23
sS'voice-ov'
p6863
I1
sS'atmospher'
p6864
I3
sS'shrewd'
p6865
I1
sS'exerc'
p6866
I1
sS'gosford'
p6867
I2
sS'garfield'
p6868
I3
sS'expir'
p6869
I1
sS'gall'
p6870
I1
sS'dedic'
p6871
I1
sS'masacur'
p6872
I1
sS'entireti'
p6873
I1
sS'nighti'
p6874
I1
sS'maladjust'
p6875
I1
sS'buff'
p6876
I1
sS'gill'
p6877
I1
sS'wildlif'
p6878
I1
sS'clothespin'
p6879
I1
sS'reach'
p6880
I5
sS'77'
p6881
I1
sS'caddyshack'
p6882
I2
sS'75'
p6883
I3
sS'sandra'
p6884
I2
sS'amaz'
p6885
I20
sS'self-sacrific'
p6886
I1
sS'destruct'
p6887
I6
sS'notch'
p6888
I1
sS'stoner'
p6889
I2
sS'nobil'
p6890
I1
sS'juliann'
p6891
I3
sS'ridicul'
p6892
I36
sS'qualif'
p6893
I2
sS'fans--h'
p6894
I1
sS'sterotyp'
p6895
I2
sS'frivol'
p6896
I1
sS'tilli'
p6897
I1
sS'betray'
p6898
I1
sS'hip'
p6899
I4
sS'his'
p6900
I215
sS'hit'
p6901
I16
sS'tommorow'
p6902
I1
sS'timmi'
p6903
I1
sS'andyru'
p6904
I1
sS'hig'
p6905
I1
sS'goody-goodi'
p6906
I1
sS'him'
p6907
I81
sS'brendan'
p6908
I1
sS'eugen'
p6909
I1
sS'relentless'
p6910
I1
sS'wrote'
p6911
I12
sS'ars'
p6912
I1
sS'art'
p6913
I15
sS'dump'
p6914
I6
sS'matix'
p6915
I1
sS'signifi'
p6916
I1
sS'are'
p6917
I356
sS'barf'
p6918
I1
sS'bark'
p6919
I1
sS'ark'
p6920
I1
sS'arm'
p6921
I1
sS'arn'
p6922
I1
sS'inconveni'
p6923
I1
sS'stupid-lik'
p6924
I1
sS'bluri'
p6925
I1
sS'berserk'
p6926
I1
sS'watchin'
p6927
I1
sS'drowned-out'
p6928
I1
sS'bibl'
p6929
I2
sS'induc'
p6930
I3
sS'sole'
p6931
I2
sS'outfit'
p6932
I2
sS'succeed'
p6933
I1
sS'solv'
p6934
I1
sS'leguizamo'
p6935
I1
sS'c'
p6936
I8
sS'cheesebal'
p6937
I2
sS'probbali'
p6938
I1
sS'oversea'
p6939
I2
sS'hellrais'
p6940
I2
sS'context'
p6941
I1
sS'motorcycl'
p6942
I1
sS'cynic'
p6943
I6
sS'knee-deep'
p6944
I1
sS'baseketbal'
p6945
I1
sS'sweet'
p6946
I9
sS'sweep'
p6947
I1
sS'harbour'
p6948
I2
sS'psychiatr'
p6949
I1
sS'storybook'
p6950
I1
sS'peron'
p6951
I1
sS'weasel'
p6952
I2
sS'rave'
p6953
I1
sS'mistak'
p6954
I12
sS'glorfi'
p6955
I1
sS'euro-trash'
p6956
I1
sS'dum'
p6957
I1
sS'duo'
p6958
I1
sS'overlook'
p6959
I3
sS'due'
p6960
I4
sS'whom'
p6961
I4
sS'pg'
p6962
I2
sS'dur'
p6963
I1
sS'woke'
p6964
I2
sS'pm'
p6965
I1
sS'flight'
p6966
I1
sS'1950s'
p6967
I1
sS'1864'
p6968
I1
sS'demand'
p6969
I6
sS'instructor'
p6970
I1
sS'packag'
p6971
I1
sS'frozen'
p6972
I1
sS'ferel'
p6973
I1
sS'behavior'
p6974
I5
sS'punchlin'
p6975
I1
sS'ecstasi'
p6976
I1
sS'trumped-up'
p6977
I1
sS'adulter'
p6978
I1
sS'demon'
p6979
I8
sS'rip'
p6980
I22
sS'quaid'
p6981
I1
sS'rig'
p6982
I1
sS'rid'
p6983
I2
sS'anguish'
p6984
I2
sS'apopear'
p6985
I1
sS'ria'
p6986
I2
sS'benjamin'
p6987
I1
sS'shirt'
p6988
I2
sS'noooo'
p6989
I1
sS'wierd'
p6990
I4
sS'shire'
p6991
I3
sS'9'
p6992
I11
sS'higher'
p6993
I3
sS'indebt'
p6994
I1
sS'huston'
p6995
I1
sS'tiresom'
p6996
I4
sS'lower'
p6997
I7
sS'hartnett'
p6998
I3
sS'schindler'
p6999
I2
sS'computer-anim'
p7000
I1
sS'cheep'
p7001
I2
sS'cheer'
p7002
I6
sS'chees'
p7003
I4
sS'over-al'
p7004
I1
sS'anybodi'
p7005
I5
sS'edgi'
p7006
I1
sS'relianc'
p7007
I1
sS'fall-back'
p7008
I1
sS'pebbl'
p7009
I1
sS'northern'
p7010
I1
sS'stimul'
p7011
I2
sS'humanoid'
p7012
I1
sS'burkettsvill'
p7013
I2
sS'complaint'
p7014
I3
sS'attila'
p7015
I1
sS'dis-tast'
p7016
I1
sS'joyless'
p7017
I1
sS'seanbryson'
p7018
I1
sS'lovin'
p7019
I1
sS'verion'
p7020
I1
sS'lowbrow'
p7021
I4
sS'mariah'
p7022
I6
sS'confront'
p7023
I4
sS'punni'
p7024
I1
sS'profanity-lac'
p7025
I2
sS'hallmark'
p7026
I1
sS'understood'
p7027
I3
sS'sediti'
p7028
I1
sS'surpris'
p7029
I23
sS'affili'
p7030
I1
sS'2102723'
p7031
I1
sS'amatur'
p7032
I1
sS'prop'
p7033
I2
sS'prom'
p7034
I2
sS'anni'
p7035
I3
sS'necessari'
p7036
I5
sS'prob'
p7037
I1
sS'darth'
p7038
I4
sS'kelsey'
p7039
I1
sS'jumpi'
p7040
I1
sS'othello'
p7041
I1
sS'squeez'
p7042
I1
sS'andi'
p7043
I4
sS'raider'
p7044
I4
sS'hogwash'
p7045
I2
sS'candl'
p7046
I1
sS'brooklyn'
p7047
I1
sS'lifeless'
p7048
I2
sS'masterpiec'
p7049
I8
sS'dialog'
p7050
I8
sS'damodar'
p7051
I1
sS'fantasia'
p7052
I1
sS'wanna'
p7053
I6
sS'underton'
p7054
I1
sS'miracl'
p7055
I2
sS'conquest'
p7056
I1
sS'shed'
p7057
I2
sS'no-tal'
p7058
I3
sS'johni'
p7059
I1
sS'mommi'
p7060
I1
sS'artifici'
p7061
I1
sS'stench'
p7062
I2
sS'canal'
p7063
I1
sS'pedophil'
p7064
I1
sS'question'
p7065
I12
sS'swill'
p7066
I1
sS'long'
p7067
I103
sS'charg'
p7068
I3
sS'zepplin'
p7069
I1
sS'styliz'
p7070
I1
sS'kristinand'
p7071
I1
sS'ingredi'
p7072
I1
sS'cloth'
p7073
I9
sS'crank'
p7074
I1
sS'delta'
p7075
I1
sS'junior'
p7076
I4
sS'4ever'
p7077
I2
sS'patriot'
p7078
I3
sS'consist'
p7079
I2
sS'highlight'
p7080
I6
sS'z'
p7081
I4
sS'x-ray'
p7082
I1
sS'derang'
p7083
I2
sS'freak'
p7084
I11
sS'gethseman'
p7085
I1
sS'grimac'
p7086
I1
sS'blasphem'
p7087
I2
sS'trekki'
p7088
I2
sS'peach'
p7089
I1
sS'contoversi'
p7090
I1
sS'riiiight'
p7091
I1
sS'nick'
p7092
I4
sS'disappointd'
p7093
I1
sS'mock'
p7094
I1
sS'nice'
p7095
I19
sS'jurass'
p7096
I2
sS'missil'
p7097
I1
sS'introduc'
p7098
I6
sS'ather'
p7099
I1
sS'happier'
p7100
I2
sS'vice'
p7101
I3
sS'we'
p7102
I115
sS'reiner'
p7103
I1
sS'wearisom'
p7104
I2
sS'non-jewish'
p7105
I1
sS'remin'
p7106
I1
sS'ashton'
p7107
I3
sS'nash'
p7108
I3
sS'buffalo'
p7109
I1
sS'pervert'
p7110
I6
sS'pervers'
p7111
I2
sS'edg'
p7112
I3
sS'atmosher'
p7113
I1
sS'steve'
p7114
I6
sS'gang'
p7115
I2
sS'superfici'
p7116
I2
sS'druggi'
p7117
I2
sS'unscriptu'
p7118
I1
sS'mathieson'
p7119
I1
sS'dragonheart'
p7120
I1
sS'leav'
p7121
I33
sS'goli'
p7122
I1
sS'mainstream'
p7123
I1
sS'ja'
p7124
I3
sS'spook'
p7125
I1
sS'spoof'
p7126
I7
sS'spoog'
p7127
I1
sS'relev'
p7128
I1
sS'eeek'
p7129
I1
sS'disgrac'
p7130
I12
sS'godaw'
p7131
I5
sS'dealt'
p7132
I1
sS'mosnter'
p7133
I1
sS'pleas'
p7134
I40
sS'judg'
p7135
I5
sS'sex-toy'
p7136
I1
sS'helicopt'
p7137
I3
sS'plead'
p7138
I1
sS'ummm'
p7139
I1
sS'acid'
p7140
I3
sS'folk'
p7141
I8
sS'superbabi'
p7142
I1
sS'compar'
p7143
I18
sS'outsmart'
p7144
I2
sS'jekyl'
p7145
I1
sS'washed-up'
p7146
I1
sS'acronym'
p7147
I1
sS'19th'
p7148
I1
sS'krik'
p7149
I1
sS'booooorrrrrriiiiinnnnnggggg'
p7150
I1
sS'chose'
p7151
I4
sS'sexi'
p7152
I6
sS'kangaroo'
p7153
I2
sS'melodramat'
p7154
I3
sS'slater'
p7155
I1
sS'miser'
p7156
I11
sS'style-over-subst'
p7157
I1
sS'ass-crack'
p7158
I1
sS'detritus'
p7159
I1
sS'cleopatra'
p7160
I1
sS'risibl'
p7161
I1
sS'rufus'
p7162
I1
sS'simpleton'
p7163
I1
sS'typic'
p7164
I19
sS'hemorrhoid'
p7165
I1
sS'taseless'
p7166
I1
sS'winkler'
p7167
I2
sS'bare'
p7168
I15
sS'heart'
p7169
I11
sS'egypt'
p7170
I1
sS'appli'
p7171
I1
sS'approxim'
p7172
I1
sS'droopi'
p7173
I1
sS'motor'
p7174
I1
sS'duck'
p7175
I1
sS'judeo-christian'
p7176
I1
sS'ape'
p7177
I7
sS'use'
p7178
I76
sS'from'
p7179
I282
sS'usa'
p7180
I3
sS'gere'
p7181
I7
sS'frog'
p7182
I3
sS'few'
p7183
I53
sS'scariest'
p7184
I2
sS'condon'
p7185
I1
sS'sort'
p7186
I18
sS'clever'
p7187
I7
sS'whant'
p7188
I1
sS'impress'
p7189
I19
sS'columbo'
p7190
I1
sS'sore'
p7191
I1
sS'rabbit'
p7192
I1
sS'penis'
p7193
I2
sS'women'
p7194
I34
sS'annoy'
p7195
I56
sS'spi'
p7196
I4
sS'critic'
p7197
I21
sS'proof'
p7198
I7
sS'tap'
p7199
I3
sS'patron'
p7200
I1
sS'tax'
p7201
I1
sS'tad'
p7202
I1
sS'villain'
p7203
I6
sS'hilton'
p7204
I1
sS'serial'
p7205
I1
sS'dummer'
p7206
I1
sS'rape'
p7207
I3
sS'sir'
p7208
I3
sS'sit'
p7209
I37
sS'six'
p7210
I3
sS'sic'
p7211
I1
sS'instead'
p7212
I53
sS'panic'
p7213
I1
sS'sin'
p7214
I2
sS'insurrect'
p7215
I1
sS'tension'
p7216
I2
sS'attend'
p7217
I1
sS'gurrila'
p7218
I1
sS'discomfort'
p7219
I1
sS'wrist'
p7220
I4
sS'attent'
p7221
I9
sS'recenti'
p7222
I1
sS'villag'
p7223
I2
sS'caract'
p7224
I1
sS'light'
p7225
I12
sS'liason'
p7226
I2
sS'testicl'
p7227
I1
sS'breast'
p7228
I5
sS'damsel'
p7229
I1
sS'elit'
p7230
I3
sS'artsy-fartsi'
p7231
I1
sS'badger'
p7232
I1
sS'glen'
p7233
I1
sS'superior'
p7234
I3
sS'voiceless'
p7235
I1
sS'nostalgia'
p7236
I1
sS'holiday'
p7237
I1
sS'freeman'
p7238
I2
sS'crash'
p7239
I5
sS'immatur'
p7240
I2
sS'republican'
p7241
I5
sS'crass'
p7242
I3
sS'annoint'
p7243
I1
sS'billi'
p7244
I6
sS'profound'
p7245
I4
sS'edit'
p7246
I7
sS'nfl'
p7247
I2
sS'astrolog'
p7248
I2
sS'meat-head'
p7249
I1
sS'tv-pg'
p7250
I1
sS'arkansa'
p7251
I1
sS'spielberg'
p7252
I12
sS'skank'
p7253
I1
sS'89'
p7254
I1
sS'antithesi'
p7255
I1
sS'our'
p7256
I48
sS'80'
p7257
I10
sS'out'
p7258
I340
sS'tabloid'
p7259
I1
sS'sentiment'
p7260
I4
sS'cahrli'
p7261
I1
sS'categori'
p7262
I4
sS'vcr'
p7263
I1
sS'disappear'
p7264
I5
sS'york'
p7265
I2
sS'age-old'
p7266
I1
sS'cri'
p7267
I19
sS'g'
p7268
I10
sS'corrector'
p7269
I1
sS'footag'
p7270
I4
sS'scattershot'
p7271
I1
sS'renni'
p7272
I1
sS'heartless'
p7273
I1
sS'potti'
p7274
I1
sS'unknown'
p7275
I3
sS'accent'
p7276
I13
sS'capac'
p7277
I1
sS'their'
p7278
I139
sS'morlock'
p7279
I1
sS'drool'
p7280
I1
sS'boil'
p7281
I1
sS'shell'
p7282
I3
sS'r-rat'
p7283
I7
sS'juli'
p7284
I2
sS'shallow'
p7285
I14
sS'greenlight'
p7286
I1
sS'deniro'
p7287
I4
sS'regurgit'
p7288
I2
sS'unorigin'
p7289
I3
sS'richer'
p7290
I1
sS'tommi'
p7291
I2
sS'clip'
p7292
I1
sS'biggi'
p7293
I1
sS'explicit'
p7294
I3
sS'cohen'
p7295
I1
sS'crucifi'
p7296
I1
sS'coher'
p7297
I3
sS'cohes'
p7298
I3
sS'disjoint'
p7299
I3
sS'simplement'
p7300
I1
sS'movie-with'
p7301
I1
sS'catholic'
p7302
I2
sS'afraid'
p7303
I2
sS'rout'
p7304
I2
sS'rous'
p7305
I1
sS'satiat'
p7306
I1
sS'sixth-rat'
p7307
I1
sS'which'
p7308
I104
sS'aresn'
p7309
I1
sS'funnypart'
p7310
I1
sS'martha'
p7311
I4
sS'divers'
p7312
I1
sS'lugar'
p7313
I1
sS'combat'
p7314
I2
sS'who'
p7315
I269
sS'whi'
p7316
I164
sS'nuts-o'
p7317
I1
sS'class'
p7318
I7
sS'lamer'
p7319
I1
sS'saddest'
p7320
I2
sS'pipe'
p7321
I1
sS'deni'
p7322
I1
sS'determin'
p7323
I2
sS'word-'
p7324
I1
sS'one-'
p7325
I1
sS'shlock-'
p7326
I1
sS'utter'
p7327
I25
sS'chicken'
p7328
I3
sS'darkest'
p7329
I1
sS'feat'
p7330
I1
sS'mckellan'
p7331
I2
sS'wuhl'
p7332
I1
sS'ha'
p7333
I18
sS'craptacualar'
p7334
I1
sS'eat'
p7335
I18
sS'conick'
p7336
I1
sS'f---'
p7337
I3
sS'inhabit'
p7338
I1
sS'local'
p7339
I10
sS'stinkorama'
p7340
I2
sS'vigor'
p7341
I2
sS'cube'
p7342
I1
sS'contribut'
p7343
I1
sS'cuba'
p7344
I1
sS'dope'
p7345
I1
sS'godspel'
p7346
I1
sS'trait'
p7347
I2
sS'cutout'
p7348
I1
sS'mundan'
p7349
I1
sS'self-indulg'
p7350
I4
sS'ripley'
p7351
I3
sS'juror'
p7352
I2
sS'f--k'
p7353
I1
sS'expel'
p7354
I1
sS'credibl'
p7355
I3
sS'knowledg'
p7356
I3
sS'im2'
p7357
I1
sS'troubl'
p7358
I9
sS'violet'
p7359
I1
sS'artsi'
p7360
I4
sS'closer'
p7361
I3
sS'cole'
p7362
I1
sS'computer'
p7363
I1
sS'panti'
p7364
I3
sS'stupid-make-gross-jokes-in-a-futile-attempt-to-be-funni'
p7365
I1
sS'superb'
p7366
I1
sS'favor'
p7367
I10
sS'crude'
p7368
I26
sS'barbershop'
p7369
I1
sS'brosnan'
p7370
I4
sS'junki'
p7371
I2
sS'bought'
p7372
I5
sS'joy'
p7373
I1
sS'job'
p7374
I26
sS'entir'
p7375
I54
sS'joe'
p7376
I2
sS'spoil'
p7377
I3
sS'harlin'
p7378
I1
sS'stucco'
p7379
I1
sS'jon'
p7380
I4
sS'addit'
p7381
I11
sS'atleast'
p7382
I2
sS'grail'
p7383
I2
sS'rodney'
p7384
I1
sS'unappeal'
p7385
I1
sS'unclear'
p7386
I3
sS'wall'
p7387
I7
sS'arriv'
p7388
I1
sS'walk'
p7389
I52
sS'walt'
p7390
I1
sS'respect'
p7391
I23
sS'8-year'
p7392
I1
sS'decent'
p7393
I15
sS'bbc'
p7394
I1
sS'compos'
p7395
I1
sS'compon'
p7396
I1
sS'besid'
p7397
I12
sS'decenc'
p7398
I1
sS'mike'
p7399
I13
sS'presenc'
p7400
I3
sS'hms'
p7401
I1
sS'osmet'
p7402
I2
sS'saner'
p7403
I1
sS'japenses'
p7404
I1
sS'presens'
p7405
I1
sS'present'
p7406
I12
sS'crappi'
p7407
I19
sS'twist'
p7408
I12
sS'wilt'
p7409
I1
sS'unsuit'
p7410
I1
sS'wild'
p7411
I5
sS'wile'
p7412
I1
sS'observ'
p7413
I1
sS'bolero'
p7414
I1
sS'layer'
p7415
I2
sS'mutant'
p7416
I1
sS'ponderars'
p7417
I1
sS'apprehend'
p7418
I1
sS'alon'
p7419
I15
sS'thus'
p7420
I3
sS'gothic'
p7421
I2
sS'snuck'
p7422
I4
sS'thug'
p7423
I1
sS'crawel'
p7424
I1
sS'primit'
p7425
I1
sS'whore'
p7426
I1
sS'misfortun'
p7427
I2
sS'cross'
p7428
I6
sS'member'
p7429
I5
sS'largest'
p7430
I1
sS'difficult'
p7431
I8
sS'slave'
p7432
I12
sS'promo'
p7433
I1
sS'ashle'
p7434
I1
sS'romeo'
p7435
I4
sS'beast'
p7436
I2
sS'student'
p7437
I8
sS'inpenetr'
p7438
I1
sS'whale'
p7439
I1
sS'gutter'
p7440
I1
sS'masochist'
p7441
I3
sS'whold'
p7442
I1
sS'english'
p7443
I6
sS'taliban'
p7444
I2
sS'loudmouth'
p7445
I2
sS'cameo'
p7446
I8
sS'camel'
p7447
I1
sS'undeserv'
p7448
I2
sS'obtain'
p7449
I1
sS'heavili'
p7450
I3
sS'tcb'
p7451
I1
sS'taillight'
p7452
I1
sS'panther'
p7453
I2
sS'oscar-worthi'
p7454
I1
sS'bell'
p7455
I1
sS'smith'
p7456
I15
sS'discuss'
p7457
I1
sS'other'
p7458
I116
sS'generat'
p7459
I9
sS'mathau'
p7460
I1
sS'lord--whi'
p7461
I1
sS'angst-ridden'
p7462
I4
sS'sick'
p7463
I47
sS'irrevers'
p7464
I1
sS'smother'
p7465
I1
sS'ever-gle'
p7466
I1
sS'know'
p7467
I140
sS'facial'
p7468
I2
sS'press'
p7469
I1
sS'chutzpah'
p7470
I1
sS'boob'
p7471
I8
sS'glipst'
p7472
I1
sS'incred'
p7473
I23
sS'imbecil'
p7474
I3
sS'mother-in-law'
p7475
I1
sS'loser'
p7476
I10
sS'exceed'
p7477
I1
sS'overhyp'
p7478
I3
sS'church'
p7479
I1
sS'115'
p7480
I1
sS'shabbi'
p7481
I1
sS'leaf'
p7482
I1
sS'lead'
p7483
I21
sS'leak'
p7484
I1
sS'lean'
p7485
I1
sS'jeremi'
p7486
I4
sS'troup'
p7487
I1
sS'leader'
p7488
I4
sS'rip-off'
p7489
I9
sS'cleavag'
p7490
I1
sS'investig'
p7491
I2
sS'slur'
p7492
I2
sS'slut'
p7493
I3
sS'pasti'
p7494
I1
sS'wesley'
p7495
I1
sS'ripper'
p7496
I1
sS'lame-o-rama'
p7497
I1
sS'unwatch'
p7498
I7
sS'rare'
p7499
I7
sS'perki'
p7500
I1
sS'injusto'
p7501
I2
sS'story-writ'
p7502
I1
sS'swear'
p7503
I7
sS'futurist'
p7504
I3
sS'sweat'
p7505
I1
sS'emperor'
p7506
I5
sS'disabl'
p7507
I1
sS'own'
p7508
I36
sS'preform'
p7509
I1
sS'owe'
p7510
I3
sS'clifton'
p7511
I1
sS'automat'
p7512
I4
sS'boggl'
p7513
I1
sS'brush'
p7514
I2
sS'ex-girlfriend'
p7515
I1
sS'pollak'
p7516
I1
sS'wasen'
p7517
I1
sS'van'
p7518
I7
sS'platoon'
p7519
I1
sS'munster'
p7520
I1
sS'appl'
p7521
I3
sS'replac'
p7522
I3
sS're-do'
p7523
I1
sS'contradictori'
p7524
I1
sS'baaaaad'
p7525
I1
sS'temt'
p7526
I1
sS'made'
p7527
I215
sS'puddl'
p7528
I1
sS'whether'
p7529
I7
sS'injur'
p7530
I1
sS'insipid'
p7531
I5
sS'nightgown'
p7532
I1
sS'record'
p7533
I11
sS'below'
p7534
I9
sS'belov'
p7535
I1
sS'arni'
p7536
I1
sS'cmon'
p7537
I1
sS'baaaaaddddd'
p7538
I1
sS'dubell'
p7539
I3
sS'meaningless'
p7540
I5
sS'lobotomi'
p7541
I1
sS'jenni'
p7542
I1
sS'boot'
p7543
I8
sS'book'
p7544
I95
sS'boom'
p7545
I1
sS'branch'
p7546
I1
sS'un-funni'
p7547
I1
sS'junk'
p7548
I25
sS'kattan'
p7549
I1
sS'beleav'
p7550
I1
sS'kinda'
p7551
I9
sS'sandler'
p7552
I32
sS'100k'
p7553
I1
sS'wannab'
p7554
I4
sS'humbl'
p7555
I1
sS'cliff'
p7556
I1
sS'pringl'
p7557
I1
sS'experienc'
p7558
I1
sS'cat-and-mous'
p7559
I1
sS'space'
p7560
I25
sS'self-cent'
p7561
I3
sS'emerg'
p7562
I1
sS'richardson'
p7563
I1
sS'sci-'
p7564
I1
s.